LX51 LINKER/LOCATER V4.66.93.0                                                          05/07/2023  14:12:54  PAGE 1


LX51 LINKER/LOCATER V4.66.93.0, INVOKED BY:
D:\KEIL\KEIL_MDK\C51\BIN\LX51.EXE .\Objects\Delay.obj, .\Objects\gps.obj, .\Objects\LCD1602.obj, .\Objects\main.obj, .\O
>> bjects\Timer0.obj, .\Objects\uart.obj, .\Objects\15AD.obj TO .\Objects\template PRINT (.\Listings\template.map) REMOV
>> EUNUSED


CPU MODE:     8051 MODE
MEMORY MODEL: LARGE


INPUT MODULES INCLUDED:
  .\Objects\Delay.obj (DELAY)
         COMMENT TYPE 0: C51 V9.59.0.0
  .\Objects\gps.obj (GPS)
         COMMENT TYPE 0: C51 V9.59.0.0
  .\Objects\LCD1602.obj (LCD1602)
         COMMENT TYPE 0: C51 V9.59.0.0
  .\Objects\main.obj (MAIN)
         COMMENT TYPE 0: C51 V9.59.0.0
  .\Objects\Timer0.obj (TIMER0)
         COMMENT TYPE 0: C51 V9.59.0.0
  .\Objects\uart.obj (UART)
         COMMENT TYPE 0: C51 V9.59.0.0
  .\Objects\15AD.obj (15AD)
         COMMENT TYPE 0: C51 V9.59.0.0
  D:\KEIL\KEIL_MDK\C51\LIB\C51L.LIB (?C_STARTUP)
         COMMENT TYPE 1: A51 / ASM51 Assembler
  D:\KEIL\KEIL_MDK\C51\LIB\C51L.LIB (?C?COPY)
         COMMENT TYPE 1: A51 / ASM51 Assembler
  D:\KEIL\KEIL_MDK\C51\LIB\C51L.LIB (?C?CLDPTR)
         COMMENT TYPE 1: A51 / ASM51 Assembler
  D:\KEIL\KEIL_MDK\C51\LIB\C51L.LIB (?C?CLDOPTR)
         COMMENT TYPE 1: A51 / ASM51 Assembler
  D:\KEIL\KEIL_MDK\C51\LIB\C51L.LIB (?C?IMUL)
         COMMENT TYPE 1: A51 / ASM51 Assembler
  D:\KEIL\KEIL_MDK\C51\LIB\C51L.LIB (?C?UIDIV)
         COMMENT TYPE 1: A51 / ASM51 Assembler
  D:\KEIL\KEIL_MDK\C51\LIB\C51L.LIB (?C?IILDX)
         COMMENT TYPE 1: A51 / ASM51 Assembler
  D:\KEIL\KEIL_MDK\C51\LIB\C51L.LIB (?C?ILDIX)
         COMMENT TYPE 1: A51 / ASM51 Assembler
  D:\KEIL\KEIL_MDK\C51\LIB\C51L.LIB (?C?ISTPTR)
         COMMENT TYPE 1: A51 / ASM51 Assembler
  D:\KEIL\KEIL_MDK\C51\LIB\C51L.LIB (PRINTF)
         COMMENT TYPE 1: A51 / ASM51 Assembler
  D:\KEIL\KEIL_MDK\C51\LIB\C51L.LIB (STRSTR)
         COMMENT TYPE 1: C51 Compiler
  D:\KEIL\KEIL_MDK\C51\LIB\C51L.LIB (STRTOK)
         COMMENT TYPE 1: C51 Compiler
  D:\KEIL\KEIL_MDK\C51\LIB\C51L.LIB (ATOI)
         COMMENT TYPE 1: C51 Compiler
  D:\KEIL\KEIL_MDK\C51\LIB\C51L.LIB (?C?MEMSET)
         COMMENT TYPE 1: A51 / ASM51 Assembler
  D:\KEIL\KEIL_MDK\C51\LIB\C51L.LIB (?C_INIT)
         COMMENT TYPE 1: A51 / ASM51 Assembler
  D:\KEIL\KEIL_MDK\C51\LIB\C51L.LIB (?C?CSTPTR)
         COMMENT TYPE 1: A51 / ASM51 Assembler
  D:\KEIL\KEIL_MDK\C51\LIB\C51L.LIB (?C?PLDIXDATA)
         COMMENT TYPE 1: A51 / ASM51 Assembler
  D:\KEIL\KEIL_MDK\C51\LIB\C51L.LIB (?C?PSTXDATA)
         COMMENT TYPE 1: A51 / ASM51 Assembler
  D:\KEIL\KEIL_MDK\C51\LIB\C51L.LIB (?C?CCASE)
         COMMENT TYPE 1: A51 / ASM51 Assembler
  D:\KEIL\KEIL_MDK\C51\LIB\C51L.LIB (PUTCHAR)
         COMMENT TYPE 1: A51 / ASM51 Assembler
  D:\KEIL\KEIL_MDK\C51\LIB\C51L.LIB (ISDIGIT)
LX51 LINKER/LOCATER V4.66.93.0                                                        05/07/2023  14:12:54  PAGE 2


         COMMENT TYPE 1: C51 Compiler
  D:\KEIL\KEIL_MDK\C51\LIB\C51L.LIB (ISSPACE)
         COMMENT TYPE 1: C51 Compiler
  D:\KEIL\KEIL_MDK\C51\LIB\C51L.LIB (STRSPN)
         COMMENT TYPE 1: C51 Compiler
  D:\KEIL\KEIL_MDK\C51\LIB\C51L.LIB (STRPBRK)
         COMMENT TYPE 1: C51 Compiler


ACTIVE MEMORY CLASSES OF MODULE:  .\Objects\template (DELAY)

BASE        START       END         USED      MEMORY CLASS
==========================================================
C:000000H   C:000000H   C:00FFFFH   001208H   CODE
X:000000H   X:000000H   X:00FFFFH   000171H   XDATA
C:000000H   C:000000H   C:00FFFFH   00009DH   CONST
I:000020H.0 I:000020H.0 I:00002FH.7 000001H.3 BIT
I:000000H   I:000000H   I:0000FFH   000001H   IDATA
I:000000H   I:000000H   I:00007FH   000015H   DATA


MEMORY MAP OF MODULE:  .\Objects\template (DELAY)


START     STOP      LENGTH    ALIGN  RELOC    MEMORY CLASS   SEGMENT NAME
=========================================================================

* * * * * * * * * * *   D A T A   M E M O R Y   * * * * * * * * * * * * *
000000H   000007H   000008H   ---    AT..     DATA           "REG BANK 0"
000008H   00000CH   000005H   BYTE   UNIT     DATA           _DATA_GROUP_
00000DH   000017H   00000BH   ---    ---      **GAP**
000018H   00001FH   000008H   ---    AT..     DATA           "REG BANK 3"
000020H.0 000021H.0 000001H.1 BIT    UNIT     BIT            _BIT_GROUP_
000021H.1 000021H.1 000000H.1 BIT    UNIT     BIT            ?BI?MAIN
000021H.2 000021H.2 000000H.1 BIT    UNIT     BIT            ?BI?UART
000021H.3 000021H   000000H.5 ---    ---      **GAP**
000022H   000022H   000001H   BYTE   UNIT     IDATA          ?STACK

* * * * * * * * * * *   C O D E   M E M O R Y   * * * * * * * * * * * * *
000000H   000002H   000003H   ---    OFFS..   CODE           ?CO??C_STARTUP?0
000003H   000004H   000002H   BYTE   UNIT     CONST          ?CO?UART
000005H   00000AH   000006H   ---    ---      **GAP**
00000BH   00000DH   000003H   BYTE   OFFS..   CODE           ?MAIN?0000B
00000EH   000021H   000014H   BYTE   UNIT     CODE           ?PR?LCD_INIT?LCD1602
000022H   000022H   000001H   ---    ---      **GAP**
000023H   000025H   000003H   BYTE   OFFS..   CODE           ?UART?00023
000026H   000040H   00001BH   BYTE   UNIT     CODE           ?PR?UART01_INIT?UART
000041H   000042H   000002H   ---    ---      **GAP**
000043H   000045H   000003H   BYTE   OFFS..   CODE           ?UART?00043
000046H   0003AAH   000365H   BYTE   UNIT     CODE           ?PR?PRINTF?PRINTF
0003ABH   00061CH   000272H   BYTE   UNIT     CODE           ?C?LIB_CODE
00061DH   0007E7H   0001CBH   BYTE   UNIT     CODE           ?PR?MAIN?MAIN
0007E8H   00095CH   000175H   BYTE   UNIT     CODE           ?PR?_DEVIDE_DATAPACKET?UART
00095DH   000A40H   0000E4H   BYTE   UNIT     CODE           ?PR?_STRTOK?STRTOK
000A41H   000B1BH   0000DBH   BYTE   UNIT     CODE           ?PR?_ATOI?ATOI
000B1CH   000BA7H   00008CH   BYTE   UNIT     CODE           ?C_C51STARTUP
000BA8H   000C2FH   000088H   BYTE   UNIT     CODE           ?PR?SHOWCO2_TVOC?MAIN
000C30H   000CB7H   000088H   BYTE   UNIT     CODE           ?PR?SHOWTMP_HUM?MAIN
000CB8H   000D3BH   000084H   BYTE   UNIT     CODE           ?PR?_STRSPN?STRSPN
000D3CH   000DBEH   000083H   BYTE   UNIT     CODE           ?PR?_REC_DATAPACKET?UART
000DBFH   000E3FH   000081H   BYTE   UNIT     CODE           ?PR?_STRPBRK?STRPBRK
000E40H   000EBDH   00007EH   BYTE   UNIT     CODE           ?PR?SENDBLUE?MAIN
000EBEH   000F18H   00005BH   BYTE   UNIT     CODE           ?PR?_LCD_POW?LCD1602
000F19H   000F69H   000051H   BYTE   UNIT     CODE           ?PR?SHOWHUM?MAIN
000F6AH   000FB5H   00004CH   BYTE   UNIT     CODE           ?C_INITSEG
LX51 LINKER/LOCATER V4.66.93.0                                                        05/07/2023  14:12:54  PAGE 3


000FB6H   000FE9H   000034H   BYTE   UNIT     CODE           ?PR?TIMER0_ROUTINE?MAIN
000FEAH   00101CH   000033H   BYTE   UNIT     CODE           ?PR?_UART01_SENDSTRING?UART
00101DH   001049H   00002DH   BYTE   UNIT     CODE           ?PR?_LCD_SHOWSTRING?LCD1602
00104AH   001072H   000029H   BYTE   UNIT     CODE           ?PR?UART01_ROUTINE?UART
001073H   001099H   000027H   BYTE   UNIT     CODE           ?PR?PUTCHAR?PUTCHAR
00109AH   0010BEH   000025H   BYTE   UNIT     CODE           ?PR?UART02_ROUTINE?UART
0010BFH   0010E1H   000023H   BYTE   UNIT     CODE           ?PR?_LCD_WRITEDATA?LCD1602
0010E2H   001104H   000023H   BYTE   UNIT     CODE           ?PR?_LCD_SETCURSOR?LCD1602
001105H   001127H   000023H   BYTE   UNIT     CODE           ?PR?_LCD_SHOWNUM?LCD1602
001128H   00114AH   000023H   BYTE   UNIT     CODE           ?PR?GET_ADC0?15AD
00114BH   00116AH   000020H   BYTE   UNIT     CODE           ?PR?KEY_SCAN?MAIN
00116BH   001185H   00001BH   BYTE   UNIT     CODE           ?PR?UART02_INIT?UART
001186H   00119EH   000019H   BYTE   UNIT     CODE           ?PR?_DELAY_MS?DELAY
00119FH   0011B5H   000017H   BYTE   UNIT     CODE           ?PR?TIMER0_INIT?TIMER0
0011B6H   0011C9H   000014H   BYTE   UNIT     CODE           ?PR?_ISSPACE?ISSPACE
0011CAH   0011D8H   00000FH   BYTE   UNIT     CODE           ?PR?LCD_DELAY?LCD1602
0011D9H   0011E7H   00000FH   BYTE   UNIT     CODE           ?PR?_ISDIGIT?ISDIGIT
0011E8H   0011F3H   00000CH   BYTE   UNIT     CODE           ?PR?DELAY1MS?DELAY
0011F4H   0011FEH   00000BH   BYTE   UNIT     CODE           ?PR?ADC_INIT?15AD
0011FFH   001208H   00000AH   BYTE   UNIT     CODE           ?PR?_LCD_WRITECOMMAND?LCD1602
001209H   001212H   00000AH   BYTE   UNIT     CODE           ?PR?_UART01_SENDBYTE?UART
001213H   0012ADH   00009BH   BYTE   UNIT     CONST          ?CO?MAIN

* * * * * * * * * * *  X D A T A   M E M O R Y  * * * * * * * * * * * * *
000000H   000078H   000079H   BYTE   UNIT     XDATA          ?XD?GPS
000079H   0000ECH   000074H   BYTE   UNIT     XDATA          _XDATA_GROUP_
0000EDH   000156H   00006AH   BYTE   UNIT     XDATA          ?XD?UART
000157H   00016DH   000017H   BYTE   UNIT     XDATA          ?XD?MAIN
00016EH   000170H   000003H   BYTE   UNIT     XDATA          ?XD?STRTOK

* * * * * * * * *   R E M O V E D     S E G M E N T S   * * * * * * * *
   *DEL*:           000063H   BYTE   UNIT     CODE           ?PR?CLRSTRUCT?GPS
   *DEL*:           00006CH   BYTE   UNIT     CODE           ?PR?_REC_LNGLAT?GPS
   *DEL*:           000003H   BYTE   UNIT     XDATA          ?XD?_REC_LNGLAT?GPS
   *DEL*:           000027H   BYTE   UNIT     CODE           ?PR?_ERRORLOG?GPS
   *DEL*:           000002H   BYTE   UNIT     XDATA          ?XD?_ERRORLOG?GPS
   *DEL*:           0001CCH   BYTE   UNIT     CODE           ?PR?PARSEGPSBUFFER?GPS
   *DEL*:           000009H   BYTE   UNIT     XDATA          ?XD?PARSEGPSBUFFER?GPS
   *DEL*:           0000A3H   BYTE   UNIT     CODE           ?PR?PRINTGPSBUFFER?GPS
   *DEL*:           0000B2H   BYTE   UNIT     CONST          ?CO?GPS
   *DEL*:           00000AH   BYTE   UNIT     CODE           ?PR?_LCD_SHOWCHAR?LCD1602
   *DEL*:           000059H   BYTE   UNIT     CODE           ?PR?_LCD_SHOWSIGNEDNUM?LCD1602
   *DEL*:           000007H   BYTE   UNIT     XDATA          ?XD?_LCD_SHOWSIGNEDNUM?LCD1602
   *DEL*:           00004FH   BYTE   UNIT     CODE           ?PR?_LCD_SHOWHEXNUM?LCD1602
   *DEL*:           000005H   BYTE   UNIT     XDATA          ?XD?_LCD_SHOWHEXNUM?LCD1602
   *DEL*:           000041H   BYTE   UNIT     CODE           ?PR?_LCD_SHOWBINNUM?LCD1602
   *DEL*:           000005H   BYTE   UNIT     XDATA          ?XD?_LCD_SHOWBINNUM?LCD1602
   *DEL*:           000008H   BYTE   UNIT     CODE           ?PR?_UART02_SENDDATA?UART
   *DEL*:           000033H   BYTE   UNIT     CODE           ?PR?_UART02_SENDSTRING?UART
   *DEL*:           000003H   BYTE   UNIT     XDATA          ?XD?_UART02_SENDSTRING?UART
   *DEL*:           000023H   BYTE   UNIT     CODE           ?PR?GET_ADC?15AD
   *DEL*:           0000BFH   BYTE   UNIT     CODE           ?PR?_STRSTR?STRSTR
   *DEL*:           00000CH   BYTE   UNIT     XDATA          ?XD?_STRSTR?STRSTR



OVERLAY MAP OF MODULE:   .\Objects\template (DELAY)


FUNCTION/MODULE                  BIT_GROUP   DATA_GROUP   XDATA_GROUP
--> CALLED FUNCTION/MODULE      START  STOP  START  STOP  START  STOP
=====================================================================
TIMER0_ROUTINE/MAIN             ----- -----  ----- -----  ----- -----

*** NEW ROOT ******************
LX51 LINKER/LOCATER V4.66.93.0                                                        05/07/2023  14:12:54  PAGE 4



UART01_ROUTINE/UART             ----- -----  ----- -----  0079H 007AH
  +--> _REC_DATAPACKET/UART

_REC_DATAPACKET/UART            ----- -----  ----- -----  007BH 007BH

*** NEW ROOT ******************

UART02_ROUTINE/UART             ----- -----  ----- -----  007CH 007CH

*** NEW ROOT ******************

?C_C51STARTUP                   ----- -----  ----- -----  ----- -----
  +--> MAIN/MAIN
  +--> ?C_INITSEG

MAIN/MAIN                       ----- -----  ----- -----  007DH 007EH
  +--> LCD_INIT/LCD1602
  +--> ADC_INIT/15AD
  +--> TIMER0_INIT/TIMER0
  +--> UART01_INIT/UART
  +--> UART02_INIT/UART
  +--> KEY_SCAN/MAIN
  +--> _DEVIDE_DATAPACKET/UART
  +--> GET_ADC0/15AD
  +--> SENDBLUE/MAIN
  +--> SHOWCO2_TVOC/MAIN
  +--> SHOWTMP_HUM/MAIN
  +--> SHOWHUM/MAIN

LCD_INIT/LCD1602                ----- -----  ----- -----  ----- -----
  +--> _LCD_WRITECOMMAND/LCD1602

_LCD_WRITECOMMAND/LCD1602       ----- -----  ----- -----  ----- -----
  +--> LCD_DELAY/LCD1602

LCD_DELAY/LCD1602               ----- -----  ----- -----  ----- -----

ADC_INIT/15AD                   ----- -----  ----- -----  ----- -----

TIMER0_INIT/TIMER0              ----- -----  ----- -----  ----- -----

UART01_INIT/UART                ----- -----  ----- -----  ----- -----

UART02_INIT/UART                ----- -----  ----- -----  ----- -----

KEY_SCAN/MAIN                   ----- -----  ----- -----  007FH 007FH
  +--> _DELAY_MS/DELAY

_DELAY_MS/DELAY                 ----- -----  ----- -----  ----- -----
  +--> DELAY1MS/DELAY

DELAY1MS/DELAY                  ----- -----  ----- -----  ----- -----

_DEVIDE_DATAPACKET/UART         ----- -----  ----- -----  007FH 0096H
  +--> _STRTOK/STRTOK
  +--> _ATOI/ATOI

_STRTOK/STRTOK                  ----- -----  ----- -----  0097H 009CH
  +--> _STRSPN/STRSPN
  +--> _STRPBRK/STRPBRK

_STRSPN/STRSPN                  ----- -----  ----- -----  009DH 00A4H

_STRPBRK/STRPBRK                ----- -----  ----- -----  009DH 00A5H
LX51 LINKER/LOCATER V4.66.93.0                                                        05/07/2023  14:12:54  PAGE 5



_ATOI/ATOI                      20H.0 20H.0  ----- -----  0097H 009BH
  +--> _ISSPACE/ISSPACE
  +--> _ISDIGIT/ISDIGIT

_ISSPACE/ISSPACE                ----- -----  ----- -----  ----- -----

_ISDIGIT/ISDIGIT                ----- -----  ----- -----  ----- -----

GET_ADC0/15AD                   ----- -----  ----- -----  ----- -----

SENDBLUE/MAIN                   ----- -----  ----- -----  007FH 00C4H
  +--> PRINTF/PRINTF
  +--> _UART01_SENDSTRING/UART

PRINTF/PRINTF                   20H.0 21H.0  0008H 000CH  00C5H 00ECH
  +--> PUTCHAR/PUTCHAR

PUTCHAR/PUTCHAR                 ----- -----  ----- -----  ----- -----

_UART01_SENDSTRING/UART         ----- -----  ----- -----  00C5H 00C7H
  +--> _UART01_SENDBYTE/UART

_UART01_SENDBYTE/UART           ----- -----  ----- -----  ----- -----

SHOWCO2_TVOC/MAIN               ----- -----  ----- -----  ----- -----
  +--> _LCD_SHOWSTRING/LCD1602
  +--> _LCD_SHOWNUM/LCD1602

_LCD_SHOWSTRING/LCD1602         ----- -----  ----- -----  007FH 0081H
  +--> _LCD_SETCURSOR/LCD1602
  +--> _LCD_WRITEDATA/LCD1602

_LCD_SETCURSOR/LCD1602          ----- -----  ----- -----  ----- -----
  +--> _LCD_WRITECOMMAND/LCD1602

_LCD_WRITEDATA/LCD1602          ----- -----  ----- -----  ----- -----
  +--> LCD_DELAY/LCD1602

_LCD_SHOWNUM/LCD1602            ----- -----  ----- -----  007FH 0083H
  +--> _LCD_SETCURSOR/LCD1602
  +--> _LCD_POW/LCD1602
  +--> _LCD_WRITEDATA/LCD1602

_LCD_POW/LCD1602                ----- -----  ----- -----  0084H 0089H

SHOWTMP_HUM/MAIN                ----- -----  ----- -----  ----- -----
  +--> _LCD_SHOWSTRING/LCD1602
  +--> _LCD_SHOWNUM/LCD1602

SHOWHUM/MAIN                    ----- -----  ----- -----  ----- -----
  +--> _LCD_SHOWSTRING/LCD1602
  +--> _LCD_SHOWNUM/LCD1602

?C_INITSEG                      ----- -----  ----- -----  ----- -----



PUBLIC SYMBOLS OF MODULE:  .\Objects\template (DELAY)


      VALUE       CLASS    TYPE      PUBLIC SYMBOL NAME
      =================================================
      0200007FH   XDATA    BYTE      ?_Devide_DataPacket?BYTE
*DEL*:00000000H   XDATA    BYTE      ?_LCD_ShowBinNum?BYTE
LX51 LINKER/LOCATER V4.66.93.0                                                        05/07/2023  14:12:54  PAGE 6


*DEL*:00000000H   XDATA    BYTE      ?_LCD_ShowHexNum?BYTE
      0200007FH   XDATA    BYTE      ?_LCD_ShowNum?BYTE
*DEL*:00000000H   XDATA    BYTE      ?_LCD_ShowSignedNum?BYTE
      020000C5H   XDATA    ---       ?_PRINTF517?BYTE
      020000C5H   XDATA    ---       ?_PRINTF?BYTE
      020000C5H   XDATA    ---       ?_SPRINTF517?BYTE
      020000C5H   XDATA    ---       ?_SPRINTF?BYTE
      0200009DH   XDATA    ---       ?_strpbrk?BYTE
      0200009DH   XDATA    ---       ?_strspn?BYTE
*DEL*:00000000H   XDATA    ---       ?_strstr?BYTE
      02000097H   XDATA    ---       ?_strtok?BYTE
      010005F7H   CODE     ---       ?C?CCASE
      010004BAH   CODE     ---       ?C?CLDOPTR
      010004A1H   CODE     ---       ?C?CLDPTR
      00000000H   NUMBER   ---       ?C?CODESEG
      0100047BH   CODE     ---       ?C?COPY
      010005C5H   CODE     ---       ?C?CSTPTR
      0100054EH   CODE     ---       ?C?IILDX
      01000564H   CODE     ---       ?C?ILDIX
      010004E7H   CODE     ---       ?C?IMUL
      0100057AH   CODE     ---       ?C?ISTPTR
      01000599H   CODE     ---       ?C?MEMSET
      010005D7H   CODE     ---       ?C?PLDIXDATA
      010005EEH   CODE     ---       ?C?PSTXDATA
      010004F9H   CODE     ---       ?C?UIDIV
      00000000H   NUMBER   ---       ?C?XDATASEG
      01000B63H   CODE     ---       ?C_START
      01000000H   CODE     ---       ?C_STARTUP
      01000A41H   CODE     ---       _atoi
      01001186H   CODE     ---       _delay_ms
      010007E8H   CODE     ---       _Devide_DataPacket
*DEL*:00000000H   CODE     ---       _errorLog
      010011D9H   CODE     ---       _isdigit
      010011B6H   CODE     ---       _isspace
      01000EC8H   CODE     ---       _LCD_Pow
      010010E7H   CODE     ---       _LCD_SetCursor
*DEL*:00000000H   CODE     ---       _LCD_ShowBinNum
*DEL*:00000000H   CODE     ---       _LCD_ShowChar
*DEL*:00000000H   CODE     ---       _LCD_ShowHexNum
      01001105H   CODE     ---       _LCD_ShowNum
*DEL*:00000000H   CODE     ---       _LCD_ShowSignedNum
      0100101DH   CODE     ---       _LCD_ShowString
      010011FFH   CODE     ---       _LCD_WriteCommand
      010010D8H   CODE     ---       _LCD_WriteData
      010000B1H   CODE     ---       _PRINTF
      010000B1H   CODE     ---       _PRINTF517
      01001073H   CODE     ---       _PUTCHAR
      01000D3CH   CODE     ---       _Rec_DataPacket
*DEL*:00000000H   CODE     ---       _Rec_LngLat
      010000ABH   CODE     ---       _SPRINTF
      010000ABH   CODE     ---       _SPRINTF517
      01000DBFH   CODE     ---       _strpbrk
      01000CB8H   CODE     ---       _strspn
*DEL*:00000000H   CODE     ---       _strstr
      0100095DH   CODE     ---       _strtok
      01001209H   CODE     ---       _UART01_SendByte
      01000FEAH   CODE     ---       _UART01_SendString
*DEL*:00000000H   CODE     ---       _Uart02_SendData
*DEL*:00000000H   CODE     ---       _Uart02_SendString
*SFR* 000000D0H.6 DATA     BIT       AC
*SFR* 000000E0H   DATA     BYTE      ACC
*SFR* 000000BCH   DATA     BYTE      ADC_CONTR
*SFR* 000000BCH   DATA     BYTE      ADC_CONTR0
      010011F4H   CODE     ---       adc_init
*SFR* 000000BDH   DATA     BYTE      ADC_RES
LX51 LINKER/LOCATER V4.66.93.0                                                        05/07/2023  14:12:54  PAGE 7


*SFR* 000000BEH   DATA     BYTE      ADC_RESL
*SFR* 0000008EH   DATA     BYTE      AUXR
*SFR* 000000A2H   DATA     BYTE      AUXR1
*SFR* 000000F0H   DATA     BYTE      B
*SFR* 000000A0H.6 DATA     BIT       BEEP
*SFR* 000000A1H   DATA     BYTE      BUS_SPEED
      00000021H.2 BIT      BIT       busy
*SFR* 000000FAH   DATA     BYTE      CCAP0H
*SFR* 000000EAH   DATA     BYTE      CCAP0L
*SFR* 000000FBH   DATA     BYTE      CCAP1H
*SFR* 000000EBH   DATA     BYTE      CCAP1L
*SFR* 000000FCH   DATA     BYTE      CCAP2H
*SFR* 000000ECH   DATA     BYTE      CCAP2L
*SFR* 000000DAH   DATA     BYTE      CCAPM0
*SFR* 000000DBH   DATA     BYTE      CCAPM1
*SFR* 000000DCH   DATA     BYTE      CCAPM2
*SFR* 000000D8H.0 DATA     BIT       CCF0
*SFR* 000000D8H.1 DATA     BIT       CCF1
*SFR* 000000D8H.2 DATA     BIT       CCF2
*SFR* 000000D8H   DATA     BYTE      CCON
*SFR* 000000D8H.7 DATA     BIT       CF
*SFR* 000000F9H   DATA     BYTE      CH
*SFR* 000000E9H   DATA     BYTE      CL
*SFR* 00000097H   DATA     BYTE      CLK_DIV
*DEL*:00000000H   CODE     ---       clrStruct
*SFR* 000000D9H   DATA     BYTE      CMOD
*SFR* 000000E6H   DATA     BYTE      CMPCR1
*SFR* 000000E7H   DATA     BYTE      CMPCR2
      0200015FH   XDATA    WORD      CO2_Value
*SFR* 000000D8H.6 DATA     BIT       CR
*SFR* 000000D0H.7 DATA     BIT       CY
      010011E8H   CODE     ---       Delay1ms
*SFR* 00000083H   DATA     BYTE      DPH
*SFR* 00000082H   DATA     BYTE      DPL
*SFR* 000000A8H.7 DATA     BIT       EA
*SFR* 000000A8H.5 DATA     BIT       EADC
*SFR* 000000A8H.6 DATA     BIT       ELVD
*SFR* 000000A8H.4 DATA     BIT       ES
*SFR* 000000A8H.1 DATA     BIT       ET0
*SFR* 000000A8H.3 DATA     BIT       ET1
*SFR* 000000A8H.0 DATA     BIT       EX0
*SFR* 000000A8H.2 DATA     BIT       EX1
*SFR* 000000D0H.5 DATA     BIT       F0
*SFR* 000000D0H.1 DATA     BIT       F1
*DEL*:00000000H   CODE     ---       get_adc
      01001128H   CODE     ---       get_adc0
      02000162H   XDATA    WORD      Hum
*SFR* 000000C3H   DATA     BYTE      IAP_ADDRH
*SFR* 000000C4H   DATA     BYTE      IAP_ADDRL
*SFR* 000000C5H   DATA     BYTE      IAP_CMD
*SFR* 000000C7H   DATA     BYTE      IAP_CONTR
*SFR* 000000C2H   DATA     BYTE      IAP_DATA
*SFR* 000000C6H   DATA     BYTE      IAP_TRIG
*SFR* 000000A8H   DATA     BYTE      IE
*SFR* 00000088H.1 DATA     BIT       IE0
*SFR* 00000088H.3 DATA     BIT       IE1
*SFR* 000000AFH   DATA     BYTE      IE2
*SFR* 000000B0H.2 DATA     BIT       INT0
*SFR* 000000B0H.3 DATA     BIT       INT1
*SFR* 0000008FH   DATA     BYTE      INT_CLKO
*SFR* 000000B8H   DATA     BYTE      IP
*SFR* 000000B5H   DATA     BYTE      IP2
*SFR* 00000088H.0 DATA     BIT       IT0
*SFR* 00000088H.2 DATA     BIT       IT1
*SFR* 000000B0H.5 DATA     BIT       KEY1
LX51 LINKER/LOCATER V4.66.93.0                                                        05/07/2023  14:12:54  PAGE 8


      0100114BH   CODE     ---       Key_scan
      010011D0H   CODE     ---       LCD_Delay
*SFR* 000000A0H.3 DATA     BIT       LCD_EN
      0100000EH   CODE     ---       LCD_Init
*SFR* 000000A0H.5 DATA     BIT       LCD_RS
*SFR* 000000A0H.4 DATA     BIT       LCD_RW
*SFR* 000000A0H.7 DATA     BIT       LED
      0100061DH   CODE     ---       main
      02000161H   XDATA    BYTE      mode
*SFR* 000000D0H.2 DATA     BIT       OV
*SFR* 000000D0H.0 DATA     BIT       P
*SFR* 00000080H   DATA     BYTE      P0
*SFR* 00000080H.0 DATA     BIT       P00
*SFR* 00000080H.1 DATA     BIT       P01
*SFR* 00000080H.2 DATA     BIT       P02
*SFR* 00000080H.3 DATA     BIT       P03
*SFR* 00000080H.4 DATA     BIT       P04
*SFR* 00000080H.5 DATA     BIT       P05
*SFR* 00000080H.6 DATA     BIT       P06
*SFR* 00000080H.7 DATA     BIT       P07
*SFR* 00000094H   DATA     BYTE      P0M0
*SFR* 00000093H   DATA     BYTE      P0M1
*SFR* 00000090H   DATA     BYTE      P1
*SFR* 00000090H.0 DATA     BIT       P10
*SFR* 00000090H.1 DATA     BIT       P11
*SFR* 00000090H.2 DATA     BIT       P12
*SFR* 00000090H.3 DATA     BIT       P13
*SFR* 00000090H.4 DATA     BIT       P14
*SFR* 00000090H.5 DATA     BIT       P15
*SFR* 00000090H.6 DATA     BIT       P16
*SFR* 00000090H.7 DATA     BIT       P17
*SFR* 0000009DH   DATA     BYTE      P1ASF
*SFR* 00000092H   DATA     BYTE      P1M0
*SFR* 00000091H   DATA     BYTE      P1M1
*SFR* 000000A0H   DATA     BYTE      P2
*SFR* 000000A0H.0 DATA     BIT       P20
*SFR* 000000A0H.1 DATA     BIT       P21
*SFR* 000000A0H.2 DATA     BIT       P22
*SFR* 000000A0H.3 DATA     BIT       P23
*SFR* 000000A0H.4 DATA     BIT       P24
*SFR* 000000A0H.5 DATA     BIT       P25
*SFR* 000000A0H.6 DATA     BIT       P26
*SFR* 000000A0H.7 DATA     BIT       P27
*SFR* 00000096H   DATA     BYTE      P2M0
*SFR* 00000095H   DATA     BYTE      P2M1
*SFR* 000000B0H   DATA     BYTE      P3
*SFR* 000000B0H.0 DATA     BIT       P30
*SFR* 000000B0H.1 DATA     BIT       P31
*SFR* 000000B0H.2 DATA     BIT       P32
*SFR* 000000B0H.3 DATA     BIT       P33
*SFR* 000000B0H.4 DATA     BIT       P34
*SFR* 000000B0H.5 DATA     BIT       P35
*SFR* 000000B0H.6 DATA     BIT       P36
*SFR* 000000B0H.7 DATA     BIT       P37
*SFR* 000000B2H   DATA     BYTE      P3M0
*SFR* 000000B1H   DATA     BYTE      P3M1
*SFR* 000000C0H   DATA     BYTE      P4
*SFR* 000000C0H.0 DATA     BIT       P40
*SFR* 000000C0H.1 DATA     BIT       P41
*SFR* 000000C0H.2 DATA     BIT       P42
*SFR* 000000C0H.3 DATA     BIT       P43
*SFR* 000000C0H.4 DATA     BIT       P44
*SFR* 000000C0H.5 DATA     BIT       P45
*SFR* 000000C0H.6 DATA     BIT       P46
*SFR* 000000C0H.7 DATA     BIT       P47
LX51 LINKER/LOCATER V4.66.93.0                                                        05/07/2023  14:12:54  PAGE 9


*SFR* 000000B4H   DATA     BYTE      P4M0
*SFR* 000000B3H   DATA     BYTE      P4M1
*SFR* 000000C8H   DATA     BYTE      P5
*SFR* 000000C8H.0 DATA     BIT       P50
*SFR* 000000C8H.1 DATA     BIT       P51
*SFR* 000000C8H.2 DATA     BIT       P52
*SFR* 000000C8H.3 DATA     BIT       P53
*SFR* 000000C8H.4 DATA     BIT       P54
*SFR* 000000C8H.5 DATA     BIT       P55
*SFR* 000000C8H.6 DATA     BIT       P56
*SFR* 000000C8H.7 DATA     BIT       P57
*SFR* 000000CAH   DATA     BYTE      P5M0
*SFR* 000000C9H   DATA     BYTE      P5M1
*SFR* 000000E8H   DATA     BYTE      P6
*SFR* 000000E8H.0 DATA     BIT       P60
*SFR* 000000E8H.1 DATA     BIT       P61
*SFR* 000000E8H.2 DATA     BIT       P62
*SFR* 000000E8H.3 DATA     BIT       P63
*SFR* 000000E8H.4 DATA     BIT       P64
*SFR* 000000E8H.5 DATA     BIT       P65
*SFR* 000000E8H.6 DATA     BIT       P66
*SFR* 000000E8H.7 DATA     BIT       P67
*SFR* 000000CCH   DATA     BYTE      P6M0
*SFR* 000000CBH   DATA     BYTE      P6M1
*SFR* 000000F8H   DATA     BYTE      P7
*SFR* 000000F8H.0 DATA     BIT       P70
*SFR* 000000F8H.1 DATA     BIT       P71
*SFR* 000000F8H.2 DATA     BIT       P72
*SFR* 000000F8H.3 DATA     BIT       P73
*SFR* 000000F8H.4 DATA     BIT       P74
*SFR* 000000F8H.5 DATA     BIT       P75
*SFR* 000000F8H.6 DATA     BIT       P76
*SFR* 000000F8H.7 DATA     BIT       P77
*SFR* 000000E2H   DATA     BYTE      P7M0
*SFR* 000000E1H   DATA     BYTE      P7M1
*SFR* 000000A2H   DATA     BYTE      P_SW1
*SFR* 000000BAH   DATA     BYTE      P_SW2
*SFR* 000000B8H.5 DATA     BIT       PADC
*DEL*:00000000H   CODE     ---       parseGpsBuffer
*SFR* 000000F2H   DATA     BYTE      PCA_PWM0
*SFR* 000000F3H   DATA     BYTE      PCA_PWM1
*SFR* 000000F4H   DATA     BYTE      PCA_PWM2
*SFR* 00000087H   DATA     BYTE      PCON
*SFR* 00000097H   DATA     BYTE      PCON2
*SFR* 000000B8H.6 DATA     BIT       PLVD
      0200015BH   XDATA    WORD      PM25
      02000159H   XDATA    WORD      PM25_Warn
*SFR* 000000B8H.7 DATA     BIT       PPCA
*DEL*:00000000H   CODE     ---       printGpsBuffer
*SFR* 000000B8H.4 DATA     BIT       PS
*SFR* 000000D0H   DATA     BYTE      PSW
*SFR* 000000B8H.1 DATA     BIT       PT0
*SFR* 000000B8H.3 DATA     BIT       PT1
*SFR* 000000F1H   DATA     BYTE      PWMCFG
*SFR* 000000F5H   DATA     BYTE      PWMCR
*SFR* 000000F7H   DATA     BYTE      PWMFDCR
*SFR* 000000F6H   DATA     BYTE      PWMIF
*SFR* 000000B8H.0 DATA     BIT       PX0
*SFR* 000000B8H.2 DATA     BIT       PX1
*SFR* 00000098H.2 DATA     BIT       RB8
*SFR* 000000B0H.7 DATA     BIT       RD
*SFR* 000000A0H.0 DATA     BIT       REALAY01
*SFR* 000000A0H.1 DATA     BIT       REALAY02
*SFR* 000000A0H.2 DATA     BIT       REALAY03
      02000123H   XDATA    ---       rec_buf
LX51 LINKER/LOCATER V4.66.93.0                                                        05/07/2023  14:12:54  PAGE 10


*SFR* 00000098H.4 DATA     BIT       REN
*SFR* 00000098H.0 DATA     BIT       RI
*SFR* 000000D0H.3 DATA     BIT       RS0
*SFR* 000000D0H.4 DATA     BIT       RS1
      02000122H   XDATA    BYTE      RX_Count
*SFR* 000000B0H.0 DATA     BIT       RXD
*SFR* 0000009BH   DATA     BYTE      S2BUF
*SFR* 0000009AH   DATA     BYTE      S2CON
*SFR* 000000ADH   DATA     BYTE      S3BUF
*SFR* 000000ACH   DATA     BYTE      S3CON
*SFR* 00000085H   DATA     BYTE      S4BUF
*SFR* 00000084H   DATA     BYTE      S4CON
*SFR* 000000A9H   DATA     BYTE      SADDR
*SFR* 000000B9H   DATA     BYTE      SADEN
      02000000H   XDATA    ---       Save_Data
*SFR* 00000099H   DATA     BYTE      SBUF
*SFR* 00000098H   DATA     BYTE      SCON
      01000E40H   CODE     ---       SendBlue
      01000BA8H   CODE     ---       ShowCO2_TVOC
      01000F19H   CODE     ---       ShowHum
      01000C30H   CODE     ---       ShowTmp_Hum
*SFR* 00000098H.7 DATA     BIT       SM0
*SFR* 00000098H.6 DATA     BIT       SM1
*SFR* 00000098H.5 DATA     BIT       SM2
*SFR* 00000081H   DATA     BYTE      SP
*SFR* 000000CEH   DATA     BYTE      SPCTL
*SFR* 000000CFH   DATA     BYTE      SPDAT
*SFR* 000000CDH   DATA     BYTE      SPSTAT
*SFR* 000000B0H.4 DATA     BIT       T0
*SFR* 000000B0H.5 DATA     BIT       T1
*SFR* 000000D6H   DATA     BYTE      T2H
*SFR* 000000D7H   DATA     BYTE      T2L
*SFR* 000000D4H   DATA     BYTE      T3H
*SFR* 000000D5H   DATA     BYTE      T3L
*SFR* 000000D1H   DATA     BYTE      T3T4M
*SFR* 000000D2H   DATA     BYTE      T4H
*SFR* 000000D3H   DATA     BYTE      T4L
*SFR* 000000D1H   DATA     BYTE      T4T3M
*SFR* 00000098H.3 DATA     BIT       TB8
*SFR* 00000088H   DATA     BYTE      TCON
*SFR* 00000088H.5 DATA     BIT       TF0
*SFR* 00000088H.7 DATA     BIT       TF1
*SFR* 0000008CH   DATA     BYTE      TH0
*SFR* 0000008DH   DATA     BYTE      TH1
*SFR* 00000098H.1 DATA     BIT       TI
      0100119FH   CODE     ---       Timer0_Init
      01000FB6H   CODE     ---       Timer0_Routine
*SFR* 0000008AH   DATA     BYTE      TL0
*SFR* 0000008BH   DATA     BYTE      TL1
*SFR* 00000089H   DATA     BYTE      TMOD
      02000168H   XDATA    WORD      Tmplate
*SFR* 00000088H.4 DATA     BIT       TR0
*SFR* 00000088H.6 DATA     BIT       TR1
      0200015DH   XDATA    WORD      Tvoc
*SFR* 000000B0H.1 DATA     BIT       TXD
      01000026H   CODE     ---       UART01_Init
      0100104AH   CODE     ---       Uart01_Routine
      0100116BH   CODE     ---       Uart02_Init
      0100109AH   CODE     ---       Uart02_Routine
      00000021H.1 BIT      BIT       uart_send_flag
      0200016AH   XDATA    WORD      warn_CO2
      02000166H   XDATA    WORD      warn_Hum
      0200016CH   XDATA    WORD      warn_Tmplate
      02000164H   XDATA    WORD      warn_Tvoc
*SFR* 000000C1H   DATA     BYTE      WDT_CONTR
LX51 LINKER/LOCATER V4.66.93.0                                                        05/07/2023  14:12:54  PAGE 11


*SFR* 000000ABH   DATA     BYTE      WKTCH
*SFR* 000000AAH   DATA     BYTE      WKTCL
*SFR* 000000B0H.6 DATA     BIT       WR



SYMBOL TABLE OF MODULE:  .\Objects\template (DELAY)

      VALUE       REP       CLASS    TYPE      SYMBOL NAME
      ====================================================
      ---         MODULE    ---      ---       DELAY
      01001186H   PUBLIC    CODE     ---       _delay_ms
      010011E8H   PUBLIC    CODE     ---       Delay1ms
      000000D8H.2 SFRSYM    DATA     BIT       CCF2
      00000092H   SFRSYM    DATA     BYTE      P1M0
      00000093H   SFRSYM    DATA     BYTE      P0M1
      00000096H   SFRSYM    DATA     BYTE      P2M0
      00000091H   SFRSYM    DATA     BYTE      P1M1
      00000080H   SFRSYM    DATA     BYTE      P0
      000000B2H   SFRSYM    DATA     BYTE      P3M0
      00000095H   SFRSYM    DATA     BYTE      P2M1
      00000090H   SFRSYM    DATA     BYTE      P1
      000000B4H   SFRSYM    DATA     BYTE      P4M0
      000000B1H   SFRSYM    DATA     BYTE      P3M1
      000000A0H   SFRSYM    DATA     BYTE      P2
      000000ABH   SFRSYM    DATA     BYTE      WKTCH
      000000CAH   SFRSYM    DATA     BYTE      P5M0
      000000B3H   SFRSYM    DATA     BYTE      P4M1
      000000B0H   SFRSYM    DATA     BYTE      P3
      000000CCH   SFRSYM    DATA     BYTE      P6M0
      000000C9H   SFRSYM    DATA     BYTE      P5M1
      000000C0H   SFRSYM    DATA     BYTE      P4
      000000D0H.6 SFRSYM    DATA     BIT       AC
      000000F6H   SFRSYM    DATA     BYTE      PWMIF
      000000E2H   SFRSYM    DATA     BYTE      P7M0
      000000CBH   SFRSYM    DATA     BYTE      P6M1
      000000C8H   SFRSYM    DATA     BYTE      P5
      000000A8H.7 SFRSYM    DATA     BIT       EA
      000000E1H   SFRSYM    DATA     BYTE      P7M1
      000000E8H   SFRSYM    DATA     BYTE      P6
      000000AAH   SFRSYM    DATA     BYTE      WKTCL
      000000F8H   SFRSYM    DATA     BYTE      P7
      000000CEH   SFRSYM    DATA     BYTE      SPCTL
      000000D8H.7 SFRSYM    DATA     BIT       CF
      000000F5H   SFRSYM    DATA     BYTE      PWMCR
      000000F9H   SFRSYM    DATA     BYTE      CH
      000000A2H   SFRSYM    DATA     BYTE      P_SW1
      000000BAH   SFRSYM    DATA     BYTE      P_SW2
      000000A8H.5 SFRSYM    DATA     BIT       EADC
      000000A8H   SFRSYM    DATA     BYTE      IE
      000000E9H   SFRSYM    DATA     BYTE      CL
      000000C5H   SFRSYM    DATA     BYTE      IAP_CMD
      000000FAH   SFRSYM    DATA     BYTE      CCAP0H
      000000FBH   SFRSYM    DATA     BYTE      CCAP1H
      000000FCH   SFRSYM    DATA     BYTE      CCAP2H
      000000BDH   SFRSYM    DATA     BYTE      ADC_RES
      000000EAH   SFRSYM    DATA     BYTE      CCAP0L
      000000D8H.6 SFRSYM    DATA     BIT       CR
      000000F7H   SFRSYM    DATA     BYTE      PWMFDCR
      000000EBH   SFRSYM    DATA     BYTE      CCAP1L
      000000DAH   SFRSYM    DATA     BYTE      CCAPM0
      000000ECH   SFRSYM    DATA     BYTE      CCAP2L
      000000DBH   SFRSYM    DATA     BYTE      CCAPM1
      000000DCH   SFRSYM    DATA     BYTE      CCAPM2
      000000A8H.4 SFRSYM    DATA     BIT       ES
LX51 LINKER/LOCATER V4.66.93.0                                                        05/07/2023  14:12:54  PAGE 12


      000000B8H.5 SFRSYM    DATA     BIT       PADC
      000000B8H   SFRSYM    DATA     BYTE      IP
      00000098H.0 SFRSYM    DATA     BIT       RI
      000000D0H.7 SFRSYM    DATA     BIT       CY
      00000098H.1 SFRSYM    DATA     BIT       TI
      00000097H   SFRSYM    DATA     BYTE      CLK_DIV
      000000C3H   SFRSYM    DATA     BYTE      IAP_ADDRH
      000000B8H.4 SFRSYM    DATA     BIT       PS
      00000081H   SFRSYM    DATA     BYTE      SP
      000000D9H   SFRSYM    DATA     BYTE      CMOD
      000000D8H   SFRSYM    DATA     BYTE      CCON
      000000C4H   SFRSYM    DATA     BYTE      IAP_ADDRL
      000000B8H.7 SFRSYM    DATA     BIT       PPCA
      000000D0H.2 SFRSYM    DATA     BIT       OV
      000000E6H   SFRSYM    DATA     BYTE      CMPCR1
      000000E7H   SFRSYM    DATA     BYTE      CMPCR2
      000000A8H.6 SFRSYM    DATA     BIT       ELVD
      00000080H.0 SFRSYM    DATA     BIT       P00
      000000BCH   SFRSYM    DATA     BYTE      ADC_CONTR
      00000099H   SFRSYM    DATA     BYTE      SBUF
      00000087H   SFRSYM    DATA     BYTE      PCON
      00000090H.0 SFRSYM    DATA     BIT       P10
      00000080H.1 SFRSYM    DATA     BIT       P01
      000000A0H.0 SFRSYM    DATA     BIT       P20
      00000090H.1 SFRSYM    DATA     BIT       P11
      00000080H.2 SFRSYM    DATA     BIT       P02
      000000B0H.0 SFRSYM    DATA     BIT       P30
      000000A0H.1 SFRSYM    DATA     BIT       P21
      00000090H.2 SFRSYM    DATA     BIT       P12
      00000080H.3 SFRSYM    DATA     BIT       P03
      00000098H   SFRSYM    DATA     BYTE      SCON
      000000C0H.0 SFRSYM    DATA     BIT       P40
      000000B0H.1 SFRSYM    DATA     BIT       P31
      000000A0H.2 SFRSYM    DATA     BIT       P22
      00000090H.3 SFRSYM    DATA     BIT       P13
      00000080H.4 SFRSYM    DATA     BIT       P04
      00000089H   SFRSYM    DATA     BYTE      TMOD
      00000088H   SFRSYM    DATA     BYTE      TCON
      000000C8H.0 SFRSYM    DATA     BIT       P50
      000000C0H.1 SFRSYM    DATA     BIT       P41
      000000B0H.2 SFRSYM    DATA     BIT       P32
      000000A0H.3 SFRSYM    DATA     BIT       P23
      00000090H.4 SFRSYM    DATA     BIT       P14
      00000080H.5 SFRSYM    DATA     BIT       P05
      000000E8H.0 SFRSYM    DATA     BIT       P60
      000000C8H.1 SFRSYM    DATA     BIT       P51
      000000C0H.2 SFRSYM    DATA     BIT       P42
      000000B0H.3 SFRSYM    DATA     BIT       P33
      000000A0H.4 SFRSYM    DATA     BIT       P24
      00000090H.5 SFRSYM    DATA     BIT       P15
      00000080H.6 SFRSYM    DATA     BIT       P06
      000000B8H.6 SFRSYM    DATA     BIT       PLVD
      000000F8H.0 SFRSYM    DATA     BIT       P70
      000000E8H.1 SFRSYM    DATA     BIT       P61
      000000C8H.2 SFRSYM    DATA     BIT       P52
      000000C0H.3 SFRSYM    DATA     BIT       P43
      000000B0H.4 SFRSYM    DATA     BIT       P34
      000000A0H.5 SFRSYM    DATA     BIT       P25
      00000090H.6 SFRSYM    DATA     BIT       P16
      00000080H.7 SFRSYM    DATA     BIT       P07
      000000F8H.1 SFRSYM    DATA     BIT       P71
      000000E8H.2 SFRSYM    DATA     BIT       P62
      000000C8H.3 SFRSYM    DATA     BIT       P53
      000000C0H.4 SFRSYM    DATA     BIT       P44
      000000B0H.5 SFRSYM    DATA     BIT       P35
LX51 LINKER/LOCATER V4.66.93.0                                                        05/07/2023  14:12:54  PAGE 13


      000000A0H.6 SFRSYM    DATA     BIT       P26
      00000090H.7 SFRSYM    DATA     BIT       P17
      000000F8H.2 SFRSYM    DATA     BIT       P72
      000000E8H.3 SFRSYM    DATA     BIT       P63
      000000C8H.4 SFRSYM    DATA     BIT       P54
      000000C0H.5 SFRSYM    DATA     BIT       P45
      000000B0H.6 SFRSYM    DATA     BIT       P36
      000000A0H.7 SFRSYM    DATA     BIT       P27
      000000F8H.3 SFRSYM    DATA     BIT       P73
      000000E8H.4 SFRSYM    DATA     BIT       P64
      000000C8H.5 SFRSYM    DATA     BIT       P55
      000000C0H.6 SFRSYM    DATA     BIT       P46
      000000B0H.7 SFRSYM    DATA     BIT       P37
      000000F8H.4 SFRSYM    DATA     BIT       P74
      000000E8H.5 SFRSYM    DATA     BIT       P65
      000000C8H.6 SFRSYM    DATA     BIT       P56
      000000C0H.7 SFRSYM    DATA     BIT       P47
      000000F8H.5 SFRSYM    DATA     BIT       P75
      000000E8H.6 SFRSYM    DATA     BIT       P66
      000000C8H.7 SFRSYM    DATA     BIT       P57
      000000F8H.6 SFRSYM    DATA     BIT       P76
      000000E8H.7 SFRSYM    DATA     BIT       P67
      00000088H.1 SFRSYM    DATA     BIT       IE0
      000000A1H   SFRSYM    DATA     BYTE      BUS_SPEED
      000000F8H.7 SFRSYM    DATA     BIT       P77
      00000088H.3 SFRSYM    DATA     BIT       IE1
      000000AFH   SFRSYM    DATA     BYTE      IE2
      0000008EH   SFRSYM    DATA     BYTE      AUXR
      000000F0H   SFRSYM    DATA     BYTE      B
      000000C7H   SFRSYM    DATA     BYTE      IAP_CONTR
      000000F1H   SFRSYM    DATA     BYTE      PWMCFG
      000000E0H   SFRSYM    DATA     BYTE      ACC
      000000A8H.1 SFRSYM    DATA     BIT       ET0
      00000088H.5 SFRSYM    DATA     BIT       TF0
      000000A8H.3 SFRSYM    DATA     BIT       ET1
      00000088H.7 SFRSYM    DATA     BIT       TF1
      000000B5H   SFRSYM    DATA     BYTE      IP2
      00000098H.2 SFRSYM    DATA     BIT       RB8
      0000008CH   SFRSYM    DATA     BYTE      TH0
      0000008DH   SFRSYM    DATA     BYTE      TH1
      00000088H.0 SFRSYM    DATA     BIT       IT0
      000000A8H.0 SFRSYM    DATA     BIT       EX0
      00000098H.3 SFRSYM    DATA     BIT       TB8
      000000D6H   SFRSYM    DATA     BYTE      T2H
      00000088H.2 SFRSYM    DATA     BIT       IT1
      000000A8H.2 SFRSYM    DATA     BIT       EX1
      000000D4H   SFRSYM    DATA     BYTE      T3H
      000000D0H.0 SFRSYM    DATA     BIT       P
      00000098H.7 SFRSYM    DATA     BIT       SM0
      000000D2H   SFRSYM    DATA     BYTE      T4H
      0000008AH   SFRSYM    DATA     BYTE      TL0
      00000098H.6 SFRSYM    DATA     BIT       SM1
      0000008BH   SFRSYM    DATA     BYTE      TL1
      00000098H.5 SFRSYM    DATA     BIT       SM2
      000000D7H   SFRSYM    DATA     BYTE      T2L
      000000D5H   SFRSYM    DATA     BYTE      T3L
      000000D3H   SFRSYM    DATA     BYTE      T4L
      000000B8H.1 SFRSYM    DATA     BIT       PT0
      000000B8H.3 SFRSYM    DATA     BIT       PT1
      000000D0H.3 SFRSYM    DATA     BIT       RS0
      000000C2H   SFRSYM    DATA     BYTE      IAP_DATA
      00000088H.4 SFRSYM    DATA     BIT       TR0
      000000D0H.4 SFRSYM    DATA     BIT       RS1
      00000088H.6 SFRSYM    DATA     BIT       TR1
      000000C1H   SFRSYM    DATA     BYTE      WDT_CONTR
LX51 LINKER/LOCATER V4.66.93.0                                                        05/07/2023  14:12:54  PAGE 14


      000000B8H.0 SFRSYM    DATA     BIT       PX0
      000000B8H.2 SFRSYM    DATA     BIT       PX1
      000000F2H   SFRSYM    DATA     BYTE      PCA_PWM0
      000000F3H   SFRSYM    DATA     BYTE      PCA_PWM1
      000000F4H   SFRSYM    DATA     BYTE      PCA_PWM2
      0000009DH   SFRSYM    DATA     BYTE      P1ASF
      00000083H   SFRSYM    DATA     BYTE      DPH
      000000D1H   SFRSYM    DATA     BYTE      T3T4M
      000000D1H   SFRSYM    DATA     BYTE      T4T3M
      000000BEH   SFRSYM    DATA     BYTE      ADC_RESL
      00000082H   SFRSYM    DATA     BYTE      DPL
      000000CDH   SFRSYM    DATA     BYTE      SPSTAT
      0000009BH   SFRSYM    DATA     BYTE      S2BUF
      000000ADH   SFRSYM    DATA     BYTE      S3BUF
      00000085H   SFRSYM    DATA     BYTE      S4BUF
      00000098H.4 SFRSYM    DATA     BIT       REN
      0000009AH   SFRSYM    DATA     BYTE      S2CON
      000000ACH   SFRSYM    DATA     BYTE      S3CON
      00000084H   SFRSYM    DATA     BYTE      S4CON
      000000B9H   SFRSYM    DATA     BYTE      SADEN
      000000A9H   SFRSYM    DATA     BYTE      SADDR
      000000C6H   SFRSYM    DATA     BYTE      IAP_TRIG
      000000A2H   SFRSYM    DATA     BYTE      AUXR1
      000000D0H.5 SFRSYM    DATA     BIT       F0
      0000008FH   SFRSYM    DATA     BYTE      INT_CLKO
      000000D0H.1 SFRSYM    DATA     BIT       F1
      000000D0H   SFRSYM    DATA     BYTE      PSW
      000000D8H.0 SFRSYM    DATA     BIT       CCF0
      000000D8H.1 SFRSYM    DATA     BIT       CCF1
      000000CFH   SFRSYM    DATA     BYTE      SPDAT
      00000094H   SFRSYM    DATA     BYTE      P0M0

      010011E8H   BLOCK     CODE     ---       LVL=0
      010011E8H   BLOCK     CODE     NEAR LAB  LVL=1
      00000007H   SYMBOL    DATA     BYTE      i
      00000006H   SYMBOL    DATA     BYTE      j
      ---         BLOCKEND  ---      ---       LVL=1
      010011E8H   LINE      CODE     ---       #3
      010011E8H   LINE      CODE     ---       #4
      010011E8H   LINE      CODE     ---       #7
      010011E9H   LINE      CODE     ---       #8
      010011EAH   LINE      CODE     ---       #9
      010011EBH   LINE      CODE     ---       #10
      010011EDH   LINE      CODE     ---       #11
      010011EFH   LINE      CODE     ---       #13
      010011EFH   LINE      CODE     ---       #14
      010011F1H   LINE      CODE     ---       #15
      010011F3H   LINE      CODE     ---       #16
      ---         BLOCKEND  ---      ---       LVL=0

      01001186H   BLOCK     CODE     ---       LVL=0
      00000004H   SYMBOL    DATA     WORD      n_ms
      0100118AH   BLOCK     CODE     NEAR LAB  LVL=1
      00000002H   SYMBOL    DATA     WORD      i
      ---         BLOCKEND  ---      ---       LVL=1
      01001186H   LINE      CODE     ---       #18
      0100118AH   LINE      CODE     ---       #19
      0100118AH   LINE      CODE     ---       #20
      0100118DH   LINE      CODE     ---       #21
      01001194H   LINE      CODE     ---       #22
      01001194H   LINE      CODE     ---       #23
      01001197H   LINE      CODE     ---       #24
      0100119EH   LINE      CODE     ---       #25
      ---         BLOCKEND  ---      ---       LVL=0

LX51 LINKER/LOCATER V4.66.93.0                                                        05/07/2023  14:12:54  PAGE 15


      ---         MODULE    ---      ---       GPS
      02000000H   PUBLIC    XDATA    ---       Save_Data
      000000D8H.2 SFRSYM    DATA     BIT       CCF2
      00000092H   SFRSYM    DATA     BYTE      P1M0
      00000093H   SFRSYM    DATA     BYTE      P0M1
      00000096H   SFRSYM    DATA     BYTE      P2M0
      00000091H   SFRSYM    DATA     BYTE      P1M1
      00000080H   SFRSYM    DATA     BYTE      P0
      000000B2H   SFRSYM    DATA     BYTE      P3M0
      00000095H   SFRSYM    DATA     BYTE      P2M1
      00000090H   SFRSYM    DATA     BYTE      P1
      000000B4H   SFRSYM    DATA     BYTE      P4M0
      000000B1H   SFRSYM    DATA     BYTE      P3M1
      000000A0H   SFRSYM    DATA     BYTE      P2
      000000ABH   SFRSYM    DATA     BYTE      WKTCH
      000000CAH   SFRSYM    DATA     BYTE      P5M0
      000000B3H   SFRSYM    DATA     BYTE      P4M1
      000000B0H   SFRSYM    DATA     BYTE      P3
      000000CCH   SFRSYM    DATA     BYTE      P6M0
      000000C9H   SFRSYM    DATA     BYTE      P5M1
      000000C0H   SFRSYM    DATA     BYTE      P4
      000000D0H.6 SFRSYM    DATA     BIT       AC
      000000F6H   SFRSYM    DATA     BYTE      PWMIF
      000000E2H   SFRSYM    DATA     BYTE      P7M0
      000000CBH   SFRSYM    DATA     BYTE      P6M1
      000000C8H   SFRSYM    DATA     BYTE      P5
      000000A8H.7 SFRSYM    DATA     BIT       EA
      000000E1H   SFRSYM    DATA     BYTE      P7M1
      000000E8H   SFRSYM    DATA     BYTE      P6
      000000AAH   SFRSYM    DATA     BYTE      WKTCL
      000000F8H   SFRSYM    DATA     BYTE      P7
      000000CEH   SFRSYM    DATA     BYTE      SPCTL
      000000D8H.7 SFRSYM    DATA     BIT       CF
      000000F5H   SFRSYM    DATA     BYTE      PWMCR
      000000F9H   SFRSYM    DATA     BYTE      CH
      000000A2H   SFRSYM    DATA     BYTE      P_SW1
      000000BAH   SFRSYM    DATA     BYTE      P_SW2
      000000A8H.5 SFRSYM    DATA     BIT       EADC
      000000A8H   SFRSYM    DATA     BYTE      IE
      000000E9H   SFRSYM    DATA     BYTE      CL
      000000C5H   SFRSYM    DATA     BYTE      IAP_CMD
      000000FAH   SFRSYM    DATA     BYTE      CCAP0H
      000000FBH   SFRSYM    DATA     BYTE      CCAP1H
      000000FCH   SFRSYM    DATA     BYTE      CCAP2H
      000000BDH   SFRSYM    DATA     BYTE      ADC_RES
      000000EAH   SFRSYM    DATA     BYTE      CCAP0L
      000000D8H.6 SFRSYM    DATA     BIT       CR
      000000F7H   SFRSYM    DATA     BYTE      PWMFDCR
      000000EBH   SFRSYM    DATA     BYTE      CCAP1L
      000000DAH   SFRSYM    DATA     BYTE      CCAPM0
      000000ECH   SFRSYM    DATA     BYTE      CCAP2L
      000000DBH   SFRSYM    DATA     BYTE      CCAPM1
      000000DCH   SFRSYM    DATA     BYTE      CCAPM2
      000000A8H.4 SFRSYM    DATA     BIT       ES
      000000B8H.5 SFRSYM    DATA     BIT       PADC
      000000B8H   SFRSYM    DATA     BYTE      IP
      00000098H.0 SFRSYM    DATA     BIT       RI
      000000D0H.7 SFRSYM    DATA     BIT       CY
      00000098H.1 SFRSYM    DATA     BIT       TI
      00000097H   SFRSYM    DATA     BYTE      CLK_DIV
      000000C3H   SFRSYM    DATA     BYTE      IAP_ADDRH
      000000B8H.4 SFRSYM    DATA     BIT       PS
      00000081H   SFRSYM    DATA     BYTE      SP
      000000D9H   SFRSYM    DATA     BYTE      CMOD
      000000D8H   SFRSYM    DATA     BYTE      CCON
LX51 LINKER/LOCATER V4.66.93.0                                                        05/07/2023  14:12:54  PAGE 16


      000000C4H   SFRSYM    DATA     BYTE      IAP_ADDRL
      000000B8H.7 SFRSYM    DATA     BIT       PPCA
      000000D0H.2 SFRSYM    DATA     BIT       OV
      000000E6H   SFRSYM    DATA     BYTE      CMPCR1
      000000E7H   SFRSYM    DATA     BYTE      CMPCR2
      000000A8H.6 SFRSYM    DATA     BIT       ELVD
      00000080H.0 SFRSYM    DATA     BIT       P00
      000000BCH   SFRSYM    DATA     BYTE      ADC_CONTR
      00000099H   SFRSYM    DATA     BYTE      SBUF
      00000087H   SFRSYM    DATA     BYTE      PCON
      00000090H.0 SFRSYM    DATA     BIT       P10
      00000080H.1 SFRSYM    DATA     BIT       P01
      000000A0H.0 SFRSYM    DATA     BIT       P20
      00000090H.1 SFRSYM    DATA     BIT       P11
      00000080H.2 SFRSYM    DATA     BIT       P02
      000000B0H.0 SFRSYM    DATA     BIT       P30
      000000A0H.1 SFRSYM    DATA     BIT       P21
      00000090H.2 SFRSYM    DATA     BIT       P12
      00000080H.3 SFRSYM    DATA     BIT       P03
      00000098H   SFRSYM    DATA     BYTE      SCON
      000000C0H.0 SFRSYM    DATA     BIT       P40
      000000B0H.1 SFRSYM    DATA     BIT       P31
      000000A0H.2 SFRSYM    DATA     BIT       P22
      00000090H.3 SFRSYM    DATA     BIT       P13
      00000080H.4 SFRSYM    DATA     BIT       P04
      00000089H   SFRSYM    DATA     BYTE      TMOD
      00000088H   SFRSYM    DATA     BYTE      TCON
      000000C8H.0 SFRSYM    DATA     BIT       P50
      000000C0H.1 SFRSYM    DATA     BIT       P41
      000000B0H.2 SFRSYM    DATA     BIT       P32
      000000A0H.3 SFRSYM    DATA     BIT       P23
      00000090H.4 SFRSYM    DATA     BIT       P14
      00000080H.5 SFRSYM    DATA     BIT       P05
      000000E8H.0 SFRSYM    DATA     BIT       P60
      000000C8H.1 SFRSYM    DATA     BIT       P51
      000000C0H.2 SFRSYM    DATA     BIT       P42
      000000B0H.3 SFRSYM    DATA     BIT       P33
      000000A0H.4 SFRSYM    DATA     BIT       P24
      00000090H.5 SFRSYM    DATA     BIT       P15
      00000080H.6 SFRSYM    DATA     BIT       P06
      000000B8H.6 SFRSYM    DATA     BIT       PLVD
      000000F8H.0 SFRSYM    DATA     BIT       P70
      000000E8H.1 SFRSYM    DATA     BIT       P61
      000000C8H.2 SFRSYM    DATA     BIT       P52
      000000C0H.3 SFRSYM    DATA     BIT       P43
      000000B0H.4 SFRSYM    DATA     BIT       P34
      000000A0H.5 SFRSYM    DATA     BIT       P25
      00000090H.6 SFRSYM    DATA     BIT       P16
      00000080H.7 SFRSYM    DATA     BIT       P07
      000000F8H.1 SFRSYM    DATA     BIT       P71
      000000E8H.2 SFRSYM    DATA     BIT       P62
      000000C8H.3 SFRSYM    DATA     BIT       P53
      000000C0H.4 SFRSYM    DATA     BIT       P44
      000000B0H.5 SFRSYM    DATA     BIT       P35
      000000A0H.6 SFRSYM    DATA     BIT       P26
      00000090H.7 SFRSYM    DATA     BIT       P17
      000000F8H.2 SFRSYM    DATA     BIT       P72
      000000E8H.3 SFRSYM    DATA     BIT       P63
      000000C8H.4 SFRSYM    DATA     BIT       P54
      000000C0H.5 SFRSYM    DATA     BIT       P45
      000000B0H.6 SFRSYM    DATA     BIT       P36
      000000A0H.7 SFRSYM    DATA     BIT       P27
      000000F8H.3 SFRSYM    DATA     BIT       P73
      000000E8H.4 SFRSYM    DATA     BIT       P64
      000000C8H.5 SFRSYM    DATA     BIT       P55
LX51 LINKER/LOCATER V4.66.93.0                                                        05/07/2023  14:12:54  PAGE 17


      000000C0H.6 SFRSYM    DATA     BIT       P46
      000000B0H.7 SFRSYM    DATA     BIT       P37
      000000F8H.4 SFRSYM    DATA     BIT       P74
      000000E8H.5 SFRSYM    DATA     BIT       P65
      000000C8H.6 SFRSYM    DATA     BIT       P56
      000000C0H.7 SFRSYM    DATA     BIT       P47
      000000F8H.5 SFRSYM    DATA     BIT       P75
      000000E8H.6 SFRSYM    DATA     BIT       P66
      000000C8H.7 SFRSYM    DATA     BIT       P57
      000000F8H.6 SFRSYM    DATA     BIT       P76
      000000E8H.7 SFRSYM    DATA     BIT       P67
      00000088H.1 SFRSYM    DATA     BIT       IE0
      000000A1H   SFRSYM    DATA     BYTE      BUS_SPEED
      000000F8H.7 SFRSYM    DATA     BIT       P77
      00000088H.3 SFRSYM    DATA     BIT       IE1
      000000AFH   SFRSYM    DATA     BYTE      IE2
      0000008EH   SFRSYM    DATA     BYTE      AUXR
      000000F0H   SFRSYM    DATA     BYTE      B
      000000C7H   SFRSYM    DATA     BYTE      IAP_CONTR
      000000F1H   SFRSYM    DATA     BYTE      PWMCFG
      000000A0H.3 SFRSYM    DATA     BIT       LCD_EN
      000000E0H   SFRSYM    DATA     BYTE      ACC
      000000A8H.1 SFRSYM    DATA     BIT       ET0
      00000088H.5 SFRSYM    DATA     BIT       TF0
      000000A8H.3 SFRSYM    DATA     BIT       ET1
      00000088H.7 SFRSYM    DATA     BIT       TF1
      000000B5H   SFRSYM    DATA     BYTE      IP2
      00000098H.2 SFRSYM    DATA     BIT       RB8
      0000008CH   SFRSYM    DATA     BYTE      TH0
      0000008DH   SFRSYM    DATA     BYTE      TH1
      00000088H.0 SFRSYM    DATA     BIT       IT0
      000000A8H.0 SFRSYM    DATA     BIT       EX0
      00000098H.3 SFRSYM    DATA     BIT       TB8
      000000D6H   SFRSYM    DATA     BYTE      T2H
      00000088H.2 SFRSYM    DATA     BIT       IT1
      000000A8H.2 SFRSYM    DATA     BIT       EX1
      000000D4H   SFRSYM    DATA     BYTE      T3H
      000000D0H.0 SFRSYM    DATA     BIT       P
      00000098H.7 SFRSYM    DATA     BIT       SM0
      000000D2H   SFRSYM    DATA     BYTE      T4H
      0000008AH   SFRSYM    DATA     BYTE      TL0
      00000098H.6 SFRSYM    DATA     BIT       SM1
      0000008BH   SFRSYM    DATA     BYTE      TL1
      00000098H.5 SFRSYM    DATA     BIT       SM2
      000000D7H   SFRSYM    DATA     BYTE      T2L
      000000D5H   SFRSYM    DATA     BYTE      T3L
      000000D3H   SFRSYM    DATA     BYTE      T4L
      000000B8H.1 SFRSYM    DATA     BIT       PT0
      000000B8H.3 SFRSYM    DATA     BIT       PT1
      000000D0H.3 SFRSYM    DATA     BIT       RS0
      000000C2H   SFRSYM    DATA     BYTE      IAP_DATA
      00000088H.4 SFRSYM    DATA     BIT       TR0
      000000D0H.4 SFRSYM    DATA     BIT       RS1
      00000088H.6 SFRSYM    DATA     BIT       TR1
      000000C1H   SFRSYM    DATA     BYTE      WDT_CONTR
      000000B8H.0 SFRSYM    DATA     BIT       PX0
      000000A0H.5 SFRSYM    DATA     BIT       LCD_RS
      000000B8H.2 SFRSYM    DATA     BIT       PX1
      000000F2H   SFRSYM    DATA     BYTE      PCA_PWM0
      000000F3H   SFRSYM    DATA     BYTE      PCA_PWM1
      000000F4H   SFRSYM    DATA     BYTE      PCA_PWM2
      0000009DH   SFRSYM    DATA     BYTE      P1ASF
      00000083H   SFRSYM    DATA     BYTE      DPH
      000000A0H.4 SFRSYM    DATA     BIT       LCD_RW
      000000D1H   SFRSYM    DATA     BYTE      T3T4M
LX51 LINKER/LOCATER V4.66.93.0                                                        05/07/2023  14:12:54  PAGE 18


      000000D1H   SFRSYM    DATA     BYTE      T4T3M
      000000BEH   SFRSYM    DATA     BYTE      ADC_RESL
      00000082H   SFRSYM    DATA     BYTE      DPL
      000000CDH   SFRSYM    DATA     BYTE      SPSTAT
      0000009BH   SFRSYM    DATA     BYTE      S2BUF
      000000ADH   SFRSYM    DATA     BYTE      S3BUF
      00000085H   SFRSYM    DATA     BYTE      S4BUF
      00000098H.4 SFRSYM    DATA     BIT       REN
      0000009AH   SFRSYM    DATA     BYTE      S2CON
      000000ACH   SFRSYM    DATA     BYTE      S3CON
      00000084H   SFRSYM    DATA     BYTE      S4CON
      000000B9H   SFRSYM    DATA     BYTE      SADEN
      000000A9H   SFRSYM    DATA     BYTE      SADDR
      000000C6H   SFRSYM    DATA     BYTE      IAP_TRIG
      000000A2H   SFRSYM    DATA     BYTE      AUXR1
      000000D0H.5 SFRSYM    DATA     BIT       F0
      0000008FH   SFRSYM    DATA     BYTE      INT_CLKO
      000000D0H.1 SFRSYM    DATA     BIT       F1
      000000D0H   SFRSYM    DATA     BYTE      PSW
      000000D8H.0 SFRSYM    DATA     BIT       CCF0
      000000D8H.1 SFRSYM    DATA     BIT       CCF1
      000000CFH   SFRSYM    DATA     BYTE      SPDAT
      00000094H   SFRSYM    DATA     BYTE      P0M0
      00000005H   SYMBOL    DATA     BYTE      _size

      ---         MODULE    ---      ---       LCD1602
      0200007FH   PUBLIC    XDATA    BYTE      ?_LCD_ShowNum?BYTE
      01001105H   PUBLIC    CODE     ---       _LCD_ShowNum
      01000EC8H   PUBLIC    CODE     ---       _LCD_Pow
      0100101DH   PUBLIC    CODE     ---       _LCD_ShowString
      0100000EH   PUBLIC    CODE     ---       LCD_Init
      010010E7H   PUBLIC    CODE     ---       _LCD_SetCursor
      010010D8H   PUBLIC    CODE     ---       _LCD_WriteData
      010011FFH   PUBLIC    CODE     ---       _LCD_WriteCommand
      010011D0H   PUBLIC    CODE     ---       LCD_Delay
      000000D8H.2 SFRSYM    DATA     BIT       CCF2
      00000092H   SFRSYM    DATA     BYTE      P1M0
      00000093H   SFRSYM    DATA     BYTE      P0M1
      00000096H   SFRSYM    DATA     BYTE      P2M0
      00000091H   SFRSYM    DATA     BYTE      P1M1
      00000080H   SFRSYM    DATA     BYTE      P0
      000000B2H   SFRSYM    DATA     BYTE      P3M0
      00000095H   SFRSYM    DATA     BYTE      P2M1
      00000090H   SFRSYM    DATA     BYTE      P1
      000000B4H   SFRSYM    DATA     BYTE      P4M0
      000000B1H   SFRSYM    DATA     BYTE      P3M1
      000000A0H   SFRSYM    DATA     BYTE      P2
      000000ABH   SFRSYM    DATA     BYTE      WKTCH
      000000CAH   SFRSYM    DATA     BYTE      P5M0
      000000B3H   SFRSYM    DATA     BYTE      P4M1
      000000B0H   SFRSYM    DATA     BYTE      P3
      000000CCH   SFRSYM    DATA     BYTE      P6M0
      000000C9H   SFRSYM    DATA     BYTE      P5M1
      000000C0H   SFRSYM    DATA     BYTE      P4
      000000D0H.6 SFRSYM    DATA     BIT       AC
      000000F6H   SFRSYM    DATA     BYTE      PWMIF
      000000E2H   SFRSYM    DATA     BYTE      P7M0
      000000CBH   SFRSYM    DATA     BYTE      P6M1
      000000C8H   SFRSYM    DATA     BYTE      P5
      000000A8H.7 SFRSYM    DATA     BIT       EA
      000000E1H   SFRSYM    DATA     BYTE      P7M1
      000000E8H   SFRSYM    DATA     BYTE      P6
      000000AAH   SFRSYM    DATA     BYTE      WKTCL
      000000F8H   SFRSYM    DATA     BYTE      P7
      000000CEH   SFRSYM    DATA     BYTE      SPCTL
LX51 LINKER/LOCATER V4.66.93.0                                                        05/07/2023  14:12:54  PAGE 19


      000000D8H.7 SFRSYM    DATA     BIT       CF
      000000F5H   SFRSYM    DATA     BYTE      PWMCR
      000000F9H   SFRSYM    DATA     BYTE      CH
      000000A2H   SFRSYM    DATA     BYTE      P_SW1
      000000BAH   SFRSYM    DATA     BYTE      P_SW2
      000000A8H.5 SFRSYM    DATA     BIT       EADC
      000000A8H   SFRSYM    DATA     BYTE      IE
      000000E9H   SFRSYM    DATA     BYTE      CL
      000000C5H   SFRSYM    DATA     BYTE      IAP_CMD
      000000FAH   SFRSYM    DATA     BYTE      CCAP0H
      000000FBH   SFRSYM    DATA     BYTE      CCAP1H
      000000FCH   SFRSYM    DATA     BYTE      CCAP2H
      000000BDH   SFRSYM    DATA     BYTE      ADC_RES
      000000EAH   SFRSYM    DATA     BYTE      CCAP0L
      000000D8H.6 SFRSYM    DATA     BIT       CR
      000000F7H   SFRSYM    DATA     BYTE      PWMFDCR
      000000EBH   SFRSYM    DATA     BYTE      CCAP1L
      000000DAH   SFRSYM    DATA     BYTE      CCAPM0
      000000ECH   SFRSYM    DATA     BYTE      CCAP2L
      000000DBH   SFRSYM    DATA     BYTE      CCAPM1
      000000DCH   SFRSYM    DATA     BYTE      CCAPM2
      000000A8H.4 SFRSYM    DATA     BIT       ES
      000000B8H.5 SFRSYM    DATA     BIT       PADC
      000000B8H   SFRSYM    DATA     BYTE      IP
      00000098H.0 SFRSYM    DATA     BIT       RI
      000000D0H.7 SFRSYM    DATA     BIT       CY
      00000098H.1 SFRSYM    DATA     BIT       TI
      00000097H   SFRSYM    DATA     BYTE      CLK_DIV
      000000C3H   SFRSYM    DATA     BYTE      IAP_ADDRH
      000000B8H.4 SFRSYM    DATA     BIT       PS
      00000081H   SFRSYM    DATA     BYTE      SP
      000000D9H   SFRSYM    DATA     BYTE      CMOD
      000000D8H   SFRSYM    DATA     BYTE      CCON
      000000C4H   SFRSYM    DATA     BYTE      IAP_ADDRL
      000000B8H.7 SFRSYM    DATA     BIT       PPCA
      000000D0H.2 SFRSYM    DATA     BIT       OV
      000000E6H   SFRSYM    DATA     BYTE      CMPCR1
      000000E7H   SFRSYM    DATA     BYTE      CMPCR2
      000000A8H.6 SFRSYM    DATA     BIT       ELVD
      00000080H.0 SFRSYM    DATA     BIT       P00
      000000BCH   SFRSYM    DATA     BYTE      ADC_CONTR
      00000099H   SFRSYM    DATA     BYTE      SBUF
      00000087H   SFRSYM    DATA     BYTE      PCON
      00000090H.0 SFRSYM    DATA     BIT       P10
      00000080H.1 SFRSYM    DATA     BIT       P01
      000000A0H.0 SFRSYM    DATA     BIT       P20
      00000090H.1 SFRSYM    DATA     BIT       P11
      00000080H.2 SFRSYM    DATA     BIT       P02
      000000B0H.0 SFRSYM    DATA     BIT       P30
      000000A0H.1 SFRSYM    DATA     BIT       P21
      00000090H.2 SFRSYM    DATA     BIT       P12
      00000080H.3 SFRSYM    DATA     BIT       P03
      00000098H   SFRSYM    DATA     BYTE      SCON
      000000C0H.0 SFRSYM    DATA     BIT       P40
      000000B0H.1 SFRSYM    DATA     BIT       P31
      000000A0H.2 SFRSYM    DATA     BIT       P22
      00000090H.3 SFRSYM    DATA     BIT       P13
      00000080H.4 SFRSYM    DATA     BIT       P04
      00000089H   SFRSYM    DATA     BYTE      TMOD
      00000088H   SFRSYM    DATA     BYTE      TCON
      000000C8H.0 SFRSYM    DATA     BIT       P50
      000000C0H.1 SFRSYM    DATA     BIT       P41
      000000B0H.2 SFRSYM    DATA     BIT       P32
      000000A0H.3 SFRSYM    DATA     BIT       P23
      00000090H.4 SFRSYM    DATA     BIT       P14
LX51 LINKER/LOCATER V4.66.93.0                                                        05/07/2023  14:12:54  PAGE 20


      00000080H.5 SFRSYM    DATA     BIT       P05
      000000E8H.0 SFRSYM    DATA     BIT       P60
      000000C8H.1 SFRSYM    DATA     BIT       P51
      000000C0H.2 SFRSYM    DATA     BIT       P42
      000000B0H.3 SFRSYM    DATA     BIT       P33
      000000A0H.4 SFRSYM    DATA     BIT       P24
      00000090H.5 SFRSYM    DATA     BIT       P15
      00000080H.6 SFRSYM    DATA     BIT       P06
      000000B8H.6 SFRSYM    DATA     BIT       PLVD
      000000F8H.0 SFRSYM    DATA     BIT       P70
      000000E8H.1 SFRSYM    DATA     BIT       P61
      000000C8H.2 SFRSYM    DATA     BIT       P52
      000000C0H.3 SFRSYM    DATA     BIT       P43
      000000B0H.4 SFRSYM    DATA     BIT       P34
      000000A0H.5 SFRSYM    DATA     BIT       P25
      00000090H.6 SFRSYM    DATA     BIT       P16
      00000080H.7 SFRSYM    DATA     BIT       P07
      000000F8H.1 SFRSYM    DATA     BIT       P71
      000000E8H.2 SFRSYM    DATA     BIT       P62
      000000C8H.3 SFRSYM    DATA     BIT       P53
      000000C0H.4 SFRSYM    DATA     BIT       P44
      000000B0H.5 SFRSYM    DATA     BIT       P35
      000000A0H.6 SFRSYM    DATA     BIT       P26
      00000090H.7 SFRSYM    DATA     BIT       P17
      000000F8H.2 SFRSYM    DATA     BIT       P72
      000000E8H.3 SFRSYM    DATA     BIT       P63
      000000C8H.4 SFRSYM    DATA     BIT       P54
      000000C0H.5 SFRSYM    DATA     BIT       P45
      000000B0H.6 SFRSYM    DATA     BIT       P36
      000000A0H.7 SFRSYM    DATA     BIT       P27
      000000F8H.3 SFRSYM    DATA     BIT       P73
      000000E8H.4 SFRSYM    DATA     BIT       P64
      000000C8H.5 SFRSYM    DATA     BIT       P55
      000000C0H.6 SFRSYM    DATA     BIT       P46
      000000B0H.7 SFRSYM    DATA     BIT       P37
      000000F8H.4 SFRSYM    DATA     BIT       P74
      000000E8H.5 SFRSYM    DATA     BIT       P65
      000000C8H.6 SFRSYM    DATA     BIT       P56
      000000C0H.7 SFRSYM    DATA     BIT       P47
      000000F8H.5 SFRSYM    DATA     BIT       P75
      000000E8H.6 SFRSYM    DATA     BIT       P66
      000000C8H.7 SFRSYM    DATA     BIT       P57
      000000F8H.6 SFRSYM    DATA     BIT       P76
      000000E8H.7 SFRSYM    DATA     BIT       P67
      00000088H.1 SFRSYM    DATA     BIT       IE0
      000000A1H   SFRSYM    DATA     BYTE      BUS_SPEED
      000000F8H.7 SFRSYM    DATA     BIT       P77
      00000088H.3 SFRSYM    DATA     BIT       IE1
      000000AFH   SFRSYM    DATA     BYTE      IE2
      0000008EH   SFRSYM    DATA     BYTE      AUXR
      000000F0H   SFRSYM    DATA     BYTE      B
      000000C7H   SFRSYM    DATA     BYTE      IAP_CONTR
      000000F1H   SFRSYM    DATA     BYTE      PWMCFG
      000000A0H.3 SFRSYM    DATA     BIT       LCD_EN
      000000E0H   SFRSYM    DATA     BYTE      ACC
      000000A8H.1 SFRSYM    DATA     BIT       ET0
      00000088H.5 SFRSYM    DATA     BIT       TF0
      000000A8H.3 SFRSYM    DATA     BIT       ET1
      00000088H.7 SFRSYM    DATA     BIT       TF1
      000000B5H   SFRSYM    DATA     BYTE      IP2
      00000098H.2 SFRSYM    DATA     BIT       RB8
      0000008CH   SFRSYM    DATA     BYTE      TH0
      0000008DH   SFRSYM    DATA     BYTE      TH1
      00000088H.0 SFRSYM    DATA     BIT       IT0
      000000A8H.0 SFRSYM    DATA     BIT       EX0
LX51 LINKER/LOCATER V4.66.93.0                                                        05/07/2023  14:12:54  PAGE 21


      00000098H.3 SFRSYM    DATA     BIT       TB8
      000000D6H   SFRSYM    DATA     BYTE      T2H
      00000088H.2 SFRSYM    DATA     BIT       IT1
      000000A8H.2 SFRSYM    DATA     BIT       EX1
      000000D4H   SFRSYM    DATA     BYTE      T3H
      000000D0H.0 SFRSYM    DATA     BIT       P
      00000098H.7 SFRSYM    DATA     BIT       SM0
      000000D2H   SFRSYM    DATA     BYTE      T4H
      0000008AH   SFRSYM    DATA     BYTE      TL0
      00000098H.6 SFRSYM    DATA     BIT       SM1
      0000008BH   SFRSYM    DATA     BYTE      TL1
      00000098H.5 SFRSYM    DATA     BIT       SM2
      000000D7H   SFRSYM    DATA     BYTE      T2L
      000000D5H   SFRSYM    DATA     BYTE      T3L
      000000D3H   SFRSYM    DATA     BYTE      T4L
      000000B8H.1 SFRSYM    DATA     BIT       PT0
      000000B8H.3 SFRSYM    DATA     BIT       PT1
      000000D0H.3 SFRSYM    DATA     BIT       RS0
      000000C2H   SFRSYM    DATA     BYTE      IAP_DATA
      00000088H.4 SFRSYM    DATA     BIT       TR0
      000000D0H.4 SFRSYM    DATA     BIT       RS1
      00000088H.6 SFRSYM    DATA     BIT       TR1
      000000C1H   SFRSYM    DATA     BYTE      WDT_CONTR
      000000B8H.0 SFRSYM    DATA     BIT       PX0
      000000A0H.5 SFRSYM    DATA     BIT       LCD_RS
      000000B8H.2 SFRSYM    DATA     BIT       PX1
      000000F2H   SFRSYM    DATA     BYTE      PCA_PWM0
      000000F3H   SFRSYM    DATA     BYTE      PCA_PWM1
      000000F4H   SFRSYM    DATA     BYTE      PCA_PWM2
      0000009DH   SFRSYM    DATA     BYTE      P1ASF
      00000083H   SFRSYM    DATA     BYTE      DPH
      000000A0H.4 SFRSYM    DATA     BIT       LCD_RW
      000000D1H   SFRSYM    DATA     BYTE      T3T4M
      000000D1H   SFRSYM    DATA     BYTE      T4T3M
      000000BEH   SFRSYM    DATA     BYTE      ADC_RESL
      00000082H   SFRSYM    DATA     BYTE      DPL
      000000CDH   SFRSYM    DATA     BYTE      SPSTAT
      0000009BH   SFRSYM    DATA     BYTE      S2BUF
      000000ADH   SFRSYM    DATA     BYTE      S3BUF
      00000085H   SFRSYM    DATA     BYTE      S4BUF
      00000098H.4 SFRSYM    DATA     BIT       REN
      0000009AH   SFRSYM    DATA     BYTE      S2CON
      000000ACH   SFRSYM    DATA     BYTE      S3CON
      00000084H   SFRSYM    DATA     BYTE      S4CON
      000000B9H   SFRSYM    DATA     BYTE      SADEN
      000000A9H   SFRSYM    DATA     BYTE      SADDR
      000000C6H   SFRSYM    DATA     BYTE      IAP_TRIG
      000000A2H   SFRSYM    DATA     BYTE      AUXR1
      000000D0H.5 SFRSYM    DATA     BIT       F0
      0000008FH   SFRSYM    DATA     BYTE      INT_CLKO
      000000D0H.1 SFRSYM    DATA     BIT       F1
      000000D0H   SFRSYM    DATA     BYTE      PSW
      000000D8H.0 SFRSYM    DATA     BIT       CCF0
      000000D8H.1 SFRSYM    DATA     BIT       CCF1
      000000CFH   SFRSYM    DATA     BYTE      SPDAT
      00000094H   SFRSYM    DATA     BYTE      P0M0

      010011CAH   BLOCK     CODE     ---       LVL=0
      ---         BLOCKEND  ---      ---       LVL=0

      010011D0H   BLOCK     CODE     ---       LVL=0
      00000007H   SYMBOL    DATA     BYTE      i
      00000006H   SYMBOL    DATA     BYTE      j
      010011D0H   BLOCK     CODE     NEAR LAB  LVL=1
      00000007H   SYMBOL    DATA     BYTE      i
LX51 LINKER/LOCATER V4.66.93.0                                                        05/07/2023  14:12:54  PAGE 22


      00000006H   SYMBOL    DATA     BYTE      j
      ---         BLOCKEND  ---      ---       LVL=1
      010011D0H   LINE      CODE     ---       #11
      010011D0H   LINE      CODE     ---       #12
      010011D0H   LINE      CODE     ---       #15
      010011D2H   LINE      CODE     ---       #16
      010011D4H   LINE      CODE     ---       #18
      010011D4H   LINE      CODE     ---       #19
      010011D6H   LINE      CODE     ---       #20
      010011D8H   LINE      CODE     ---       #21
      ---         BLOCKEND  ---      ---       LVL=0

      010011FFH   BLOCK     CODE     ---       LVL=0
      00000007H   SYMBOL    DATA     BYTE      Command
      010011FFH   LINE      CODE     ---       #28
      010011FFH   LINE      CODE     ---       #29
      010011FFH   LINE      CODE     ---       #30
      01001201H   LINE      CODE     ---       #31
      01001201H   LINE      CODE     ---       #32
      01001201H   LINE      CODE     ---       #33
      01001201H   LINE      CODE     ---       #34
      01001204H   LINE      CODE     ---       #35
      01001206H   LINE      CODE     ---       #36
      ---         BLOCKEND  ---      ---       LVL=0

      010010BFH   BLOCK     CODE     ---       LVL=0
      ---         BLOCKEND  ---      ---       LVL=0

      010010D8H   BLOCK     CODE     ---       LVL=0
      00000007H   SYMBOL    DATA     BYTE      Data
      010010D8H   LINE      CODE     ---       #44
      010010D8H   LINE      CODE     ---       #45
      010010D8H   LINE      CODE     ---       #46
      010010DAH   LINE      CODE     ---       #47
      010010DAH   LINE      CODE     ---       #48
      010010DAH   LINE      CODE     ---       #49
      010010DAH   LINE      CODE     ---       #50
      010010DDH   LINE      CODE     ---       #51
      010010DFH   LINE      CODE     ---       #52
      ---         BLOCKEND  ---      ---       LVL=0

      010010E2H   BLOCK     CODE     ---       LVL=0
      ---         BLOCKEND  ---      ---       LVL=0

      010010E7H   BLOCK     CODE     ---       LVL=0
      00000006H   SYMBOL    DATA     BYTE      Line
      00000005H   SYMBOL    DATA     BYTE      Column
      010010E7H   LINE      CODE     ---       #61
      010010E9H   LINE      CODE     ---       #62
      010010E9H   LINE      CODE     ---       #63
      010010F1H   LINE      CODE     ---       #64
      010010F1H   LINE      CODE     ---       #65
      010010F3H   LINE      CODE     ---       #66
      010010F5H   LINE      CODE     ---       #67
      010010FBH   LINE      CODE     ---       #68
      010010FBH   LINE      CODE     ---       #69
      01001104H   LINE      CODE     ---       #70
      01001104H   LINE      CODE     ---       #71
      ---         BLOCKEND  ---      ---       LVL=0

      0100000EH   BLOCK     CODE     ---       LVL=0
      0100000EH   LINE      CODE     ---       #78
      0100000EH   LINE      CODE     ---       #79
      0100000EH   LINE      CODE     ---       #80
      01000013H   LINE      CODE     ---       #81
LX51 LINKER/LOCATER V4.66.93.0                                                        05/07/2023  14:12:54  PAGE 23


      01000018H   LINE      CODE     ---       #82
      0100001DH   LINE      CODE     ---       #83
      ---         BLOCKEND  ---      ---       LVL=0
      00000007H   SYMBOL    DATA     BYTE      Line
      00000005H   SYMBOL    DATA     BYTE      Column
      00000004H   SYMBOL    DATA     CHAR      Char

      0100101DH   BLOCK     CODE     ---       LVL=0
      00000007H   SYMBOL    DATA     BYTE      Line
      00000005H   SYMBOL    DATA     BYTE      Column
      0200007FH   SYMBOL    XDATA    ---       String
      01001028H   BLOCK     CODE     NEAR LAB  LVL=1
      00000005H   SYMBOL    DATA     BYTE      i
      ---         BLOCKEND  ---      ---       LVL=1
      0100101DH   LINE      CODE     ---       #106
      01001028H   LINE      CODE     ---       #107
      01001028H   LINE      CODE     ---       #109
      0100102BH   LINE      CODE     ---       #110
      01001043H   LINE      CODE     ---       #111
      01001043H   LINE      CODE     ---       #112
      01001046H   LINE      CODE     ---       #113
      01001049H   LINE      CODE     ---       #114
      ---         BLOCKEND  ---      ---       LVL=0

      01000EBEH   BLOCK     CODE     ---       LVL=0
      ---         BLOCKEND  ---      ---       LVL=0

      01000EC8H   BLOCK     CODE     ---       LVL=0
      02000084H   SYMBOL    XDATA    INT       X
      02000086H   SYMBOL    XDATA    INT       Y
      00000003H   SYMBOL    DATA     BYTE      i
      02000088H   SYMBOL    XDATA    INT       Result
      01000ED6H   BLOCK     CODE     NEAR LAB  LVL=1
      00000003H   SYMBOL    DATA     BYTE      i
      02000088H   SYMBOL    XDATA    INT       Result
      ---         BLOCKEND  ---      ---       LVL=1
      01000EC8H   LINE      CODE     ---       #119
      01000ED6H   LINE      CODE     ---       #120
      01000ED6H   LINE      CODE     ---       #122
      01000EDCH   LINE      CODE     ---       #123
      01000EF2H   LINE      CODE     ---       #124
      01000EF2H   LINE      CODE     ---       #125
      01000F0DH   LINE      CODE     ---       #126
      01000F10H   LINE      CODE     ---       #127
      01000F18H   LINE      CODE     ---       #128
      ---         BLOCKEND  ---      ---       LVL=0

      01001105H   BLOCK     CODE     ---       LVL=0
      00000007H   SYMBOL    DATA     BYTE      Line
      00000005H   SYMBOL    DATA     BYTE      Column
      02000081H   SYMBOL    XDATA    WORD      Number
      02000083H   SYMBOL    XDATA    BYTE      Length
      01001108H   BLOCK     CODE     NEAR LAB  LVL=1
      00000002H   SYMBOL    DATA     BYTE      i
      ---         BLOCKEND  ---      ---       LVL=1
      01001105H   LINE      CODE     ---       #138
      01001108H   LINE      CODE     ---       #139
      01001108H   LINE      CODE     ---       #141
      0100110BH   LINE      CODE     ---       #142
      0100111BH   LINE      CODE     ---       #143
      0100111BH   LINE      CODE     ---       #144
      01001124H   LINE      CODE     ---       #145
      01001127H   LINE      CODE     ---       #146
      ---         BLOCKEND  ---      ---       LVL=0
      00000007H   SYMBOL    DATA     BYTE      Line
LX51 LINKER/LOCATER V4.66.93.0                                                        05/07/2023  14:12:54  PAGE 24


      00000005H   SYMBOL    DATA     BYTE      Column
      00000002H   SYMBOL    DATA     BYTE      i
      00000007H   SYMBOL    DATA     BYTE      Line
      00000005H   SYMBOL    DATA     BYTE      Column
      00000002H   SYMBOL    DATA     BYTE      i
      00000006H   SYMBOL    DATA     BYTE      SingleNumber
      00000007H   SYMBOL    DATA     BYTE      Line
      00000005H   SYMBOL    DATA     BYTE      Column
      00000002H   SYMBOL    DATA     BYTE      i

      ---         MODULE    ---      ---       MAIN
      0200016CH   PUBLIC    XDATA    WORD      warn_Tmplate
      0200016AH   PUBLIC    XDATA    WORD      warn_CO2
      02000168H   PUBLIC    XDATA    WORD      Tmplate
      00000021H.1 PUBLIC    BIT      BIT       uart_send_flag
      02000166H   PUBLIC    XDATA    WORD      warn_Hum
      02000164H   PUBLIC    XDATA    WORD      warn_Tvoc
      02000162H   PUBLIC    XDATA    WORD      Hum
      02000161H   PUBLIC    XDATA    BYTE      mode
      0200015FH   PUBLIC    XDATA    WORD      CO2_Value
      0200015DH   PUBLIC    XDATA    WORD      Tvoc
      0200015BH   PUBLIC    XDATA    WORD      PM25
      02000159H   PUBLIC    XDATA    WORD      PM25_Warn
      01000FB6H   PUBLIC    CODE     ---       Timer0_Routine
      0100061DH   PUBLIC    CODE     ---       main
      0100114BH   PUBLIC    CODE     ---       Key_scan
      01000E40H   PUBLIC    CODE     ---       SendBlue
      01000F19H   PUBLIC    CODE     ---       ShowHum
      01000C30H   PUBLIC    CODE     ---       ShowTmp_Hum
      01000BA8H   PUBLIC    CODE     ---       ShowCO2_TVOC
      000000D8H.2 SFRSYM    DATA     BIT       CCF2
      00000092H   SFRSYM    DATA     BYTE      P1M0
      00000093H   SFRSYM    DATA     BYTE      P0M1
      00000096H   SFRSYM    DATA     BYTE      P2M0
      00000091H   SFRSYM    DATA     BYTE      P1M1
      00000080H   SFRSYM    DATA     BYTE      P0
      000000B2H   SFRSYM    DATA     BYTE      P3M0
      00000095H   SFRSYM    DATA     BYTE      P2M1
      00000090H   SFRSYM    DATA     BYTE      P1
      000000B4H   SFRSYM    DATA     BYTE      P4M0
      000000B1H   SFRSYM    DATA     BYTE      P3M1
      000000A0H   SFRSYM    DATA     BYTE      P2
      000000ABH   SFRSYM    DATA     BYTE      WKTCH
      000000CAH   SFRSYM    DATA     BYTE      P5M0
      000000B3H   SFRSYM    DATA     BYTE      P4M1
      000000B0H   SFRSYM    DATA     BYTE      P3
      000000CCH   SFRSYM    DATA     BYTE      P6M0
      000000C9H   SFRSYM    DATA     BYTE      P5M1
      000000C0H   SFRSYM    DATA     BYTE      P4
      000000D0H.6 SFRSYM    DATA     BIT       AC
      000000F6H   SFRSYM    DATA     BYTE      PWMIF
      000000E2H   SFRSYM    DATA     BYTE      P7M0
      000000CBH   SFRSYM    DATA     BYTE      P6M1
      000000C8H   SFRSYM    DATA     BYTE      P5
      000000A8H.7 SFRSYM    DATA     BIT       EA
      000000E1H   SFRSYM    DATA     BYTE      P7M1
      000000E8H   SFRSYM    DATA     BYTE      P6
      000000AAH   SFRSYM    DATA     BYTE      WKTCL
      000000F8H   SFRSYM    DATA     BYTE      P7
      000000CEH   SFRSYM    DATA     BYTE      SPCTL
      000000D8H.7 SFRSYM    DATA     BIT       CF
      000000F5H   SFRSYM    DATA     BYTE      PWMCR
      000000F9H   SFRSYM    DATA     BYTE      CH
      000000A2H   SFRSYM    DATA     BYTE      P_SW1
      000000BAH   SFRSYM    DATA     BYTE      P_SW2
LX51 LINKER/LOCATER V4.66.93.0                                                        05/07/2023  14:12:54  PAGE 25


      000000A8H.5 SFRSYM    DATA     BIT       EADC
      000000A8H   SFRSYM    DATA     BYTE      IE
      000000E9H   SFRSYM    DATA     BYTE      CL
      000000C5H   SFRSYM    DATA     BYTE      IAP_CMD
      000000FAH   SFRSYM    DATA     BYTE      CCAP0H
      000000FBH   SFRSYM    DATA     BYTE      CCAP1H
      000000FCH   SFRSYM    DATA     BYTE      CCAP2H
      000000BDH   SFRSYM    DATA     BYTE      ADC_RES
      000000EAH   SFRSYM    DATA     BYTE      CCAP0L
      000000D8H.6 SFRSYM    DATA     BIT       CR
      000000F7H   SFRSYM    DATA     BYTE      PWMFDCR
      000000EBH   SFRSYM    DATA     BYTE      CCAP1L
      000000DAH   SFRSYM    DATA     BYTE      CCAPM0
      000000ECH   SFRSYM    DATA     BYTE      CCAP2L
      000000DBH   SFRSYM    DATA     BYTE      CCAPM1
      000000DCH   SFRSYM    DATA     BYTE      CCAPM2
      000000A8H.4 SFRSYM    DATA     BIT       ES
      000000B8H.5 SFRSYM    DATA     BIT       PADC
      000000B8H   SFRSYM    DATA     BYTE      IP
      000000B0H.5 SFRSYM    DATA     BIT       KEY1
      00000098H.0 SFRSYM    DATA     BIT       RI
      000000D0H.7 SFRSYM    DATA     BIT       CY
      000000A0H.6 SFRSYM    DATA     BIT       BEEP
      00000098H.1 SFRSYM    DATA     BIT       TI
      00000097H   SFRSYM    DATA     BYTE      CLK_DIV
      000000C3H   SFRSYM    DATA     BYTE      IAP_ADDRH
      000000A0H.0 SFRSYM    DATA     BIT       REALAY01
      000000A0H.1 SFRSYM    DATA     BIT       REALAY02
      000000B8H.4 SFRSYM    DATA     BIT       PS
      00000081H   SFRSYM    DATA     BYTE      SP
      000000A0H.2 SFRSYM    DATA     BIT       REALAY03
      000000D9H   SFRSYM    DATA     BYTE      CMOD
      000000D8H   SFRSYM    DATA     BYTE      CCON
      000000C4H   SFRSYM    DATA     BYTE      IAP_ADDRL
      000000B8H.7 SFRSYM    DATA     BIT       PPCA
      000000D0H.2 SFRSYM    DATA     BIT       OV
      000000E6H   SFRSYM    DATA     BYTE      CMPCR1
      000000E7H   SFRSYM    DATA     BYTE      CMPCR2
      000000A8H.6 SFRSYM    DATA     BIT       ELVD
      00000080H.0 SFRSYM    DATA     BIT       P00
      000000BCH   SFRSYM    DATA     BYTE      ADC_CONTR
      00000099H   SFRSYM    DATA     BYTE      SBUF
      00000087H   SFRSYM    DATA     BYTE      PCON
      00000090H.0 SFRSYM    DATA     BIT       P10
      00000080H.1 SFRSYM    DATA     BIT       P01
      000000A0H.0 SFRSYM    DATA     BIT       P20
      00000090H.1 SFRSYM    DATA     BIT       P11
      00000080H.2 SFRSYM    DATA     BIT       P02
      000000B0H.0 SFRSYM    DATA     BIT       P30
      000000A0H.1 SFRSYM    DATA     BIT       P21
      00000090H.2 SFRSYM    DATA     BIT       P12
      00000080H.3 SFRSYM    DATA     BIT       P03
      00000098H   SFRSYM    DATA     BYTE      SCON
      000000C0H.0 SFRSYM    DATA     BIT       P40
      000000B0H.1 SFRSYM    DATA     BIT       P31
      000000A0H.2 SFRSYM    DATA     BIT       P22
      00000090H.3 SFRSYM    DATA     BIT       P13
      00000080H.4 SFRSYM    DATA     BIT       P04
      00000089H   SFRSYM    DATA     BYTE      TMOD
      00000088H   SFRSYM    DATA     BYTE      TCON
      000000C8H.0 SFRSYM    DATA     BIT       P50
      000000C0H.1 SFRSYM    DATA     BIT       P41
      000000B0H.2 SFRSYM    DATA     BIT       P32
      000000A0H.3 SFRSYM    DATA     BIT       P23
      00000090H.4 SFRSYM    DATA     BIT       P14
LX51 LINKER/LOCATER V4.66.93.0                                                        05/07/2023  14:12:54  PAGE 26


      00000080H.5 SFRSYM    DATA     BIT       P05
      000000E8H.0 SFRSYM    DATA     BIT       P60
      000000C8H.1 SFRSYM    DATA     BIT       P51
      000000C0H.2 SFRSYM    DATA     BIT       P42
      000000B0H.3 SFRSYM    DATA     BIT       P33
      000000A0H.4 SFRSYM    DATA     BIT       P24
      00000090H.5 SFRSYM    DATA     BIT       P15
      00000080H.6 SFRSYM    DATA     BIT       P06
      000000B8H.6 SFRSYM    DATA     BIT       PLVD
      000000F8H.0 SFRSYM    DATA     BIT       P70
      000000E8H.1 SFRSYM    DATA     BIT       P61
      000000C8H.2 SFRSYM    DATA     BIT       P52
      000000C0H.3 SFRSYM    DATA     BIT       P43
      000000B0H.4 SFRSYM    DATA     BIT       P34
      000000A0H.5 SFRSYM    DATA     BIT       P25
      00000090H.6 SFRSYM    DATA     BIT       P16
      00000080H.7 SFRSYM    DATA     BIT       P07
      000000F8H.1 SFRSYM    DATA     BIT       P71
      000000E8H.2 SFRSYM    DATA     BIT       P62
      000000C8H.3 SFRSYM    DATA     BIT       P53
      000000C0H.4 SFRSYM    DATA     BIT       P44
      000000B0H.5 SFRSYM    DATA     BIT       P35
      000000A0H.6 SFRSYM    DATA     BIT       P26
      00000090H.7 SFRSYM    DATA     BIT       P17
      000000F8H.2 SFRSYM    DATA     BIT       P72
      000000E8H.3 SFRSYM    DATA     BIT       P63
      000000C8H.4 SFRSYM    DATA     BIT       P54
      000000C0H.5 SFRSYM    DATA     BIT       P45
      000000B0H.6 SFRSYM    DATA     BIT       P36
      000000A0H.7 SFRSYM    DATA     BIT       P27
      000000F8H.3 SFRSYM    DATA     BIT       P73
      000000E8H.4 SFRSYM    DATA     BIT       P64
      000000C8H.5 SFRSYM    DATA     BIT       P55
      000000C0H.6 SFRSYM    DATA     BIT       P46
      000000B0H.7 SFRSYM    DATA     BIT       P37
      000000F8H.4 SFRSYM    DATA     BIT       P74
      000000E8H.5 SFRSYM    DATA     BIT       P65
      000000C8H.6 SFRSYM    DATA     BIT       P56
      000000C0H.7 SFRSYM    DATA     BIT       P47
      000000F8H.5 SFRSYM    DATA     BIT       P75
      000000E8H.6 SFRSYM    DATA     BIT       P66
      000000C8H.7 SFRSYM    DATA     BIT       P57
      000000F8H.6 SFRSYM    DATA     BIT       P76
      000000E8H.7 SFRSYM    DATA     BIT       P67
      00000088H.1 SFRSYM    DATA     BIT       IE0
      000000A1H   SFRSYM    DATA     BYTE      BUS_SPEED
      000000F8H.7 SFRSYM    DATA     BIT       P77
      00000088H.3 SFRSYM    DATA     BIT       IE1
      000000AFH   SFRSYM    DATA     BYTE      IE2
      0000008EH   SFRSYM    DATA     BYTE      AUXR
      000000F0H   SFRSYM    DATA     BYTE      B
      000000C7H   SFRSYM    DATA     BYTE      IAP_CONTR
      000000F1H   SFRSYM    DATA     BYTE      PWMCFG
      000000A0H.3 SFRSYM    DATA     BIT       LCD_EN
      000000E0H   SFRSYM    DATA     BYTE      ACC
      000000A8H.1 SFRSYM    DATA     BIT       ET0
      00000088H.5 SFRSYM    DATA     BIT       TF0
      000000A8H.3 SFRSYM    DATA     BIT       ET1
      00000088H.7 SFRSYM    DATA     BIT       TF1
      000000B5H   SFRSYM    DATA     BYTE      IP2
      00000098H.2 SFRSYM    DATA     BIT       RB8
      0000008CH   SFRSYM    DATA     BYTE      TH0
      0000008DH   SFRSYM    DATA     BYTE      TH1
      00000088H.0 SFRSYM    DATA     BIT       IT0
      000000A8H.0 SFRSYM    DATA     BIT       EX0
LX51 LINKER/LOCATER V4.66.93.0                                                        05/07/2023  14:12:54  PAGE 27


      00000098H.3 SFRSYM    DATA     BIT       TB8
      000000D6H   SFRSYM    DATA     BYTE      T2H
      00000088H.2 SFRSYM    DATA     BIT       IT1
      000000A8H.2 SFRSYM    DATA     BIT       EX1
      000000D4H   SFRSYM    DATA     BYTE      T3H
      000000D0H.0 SFRSYM    DATA     BIT       P
      00000098H.7 SFRSYM    DATA     BIT       SM0
      000000D2H   SFRSYM    DATA     BYTE      T4H
      0000008AH   SFRSYM    DATA     BYTE      TL0
      00000098H.6 SFRSYM    DATA     BIT       SM1
      0000008BH   SFRSYM    DATA     BYTE      TL1
      00000098H.5 SFRSYM    DATA     BIT       SM2
      000000D7H   SFRSYM    DATA     BYTE      T2L
      000000D5H   SFRSYM    DATA     BYTE      T3L
      000000D3H   SFRSYM    DATA     BYTE      T4L
      000000B8H.1 SFRSYM    DATA     BIT       PT0
      000000A0H.7 SFRSYM    DATA     BIT       LED
      000000B8H.3 SFRSYM    DATA     BIT       PT1
      000000D0H.3 SFRSYM    DATA     BIT       RS0
      000000C2H   SFRSYM    DATA     BYTE      IAP_DATA
      00000088H.4 SFRSYM    DATA     BIT       TR0
      000000D0H.4 SFRSYM    DATA     BIT       RS1
      00000088H.6 SFRSYM    DATA     BIT       TR1
      000000C1H   SFRSYM    DATA     BYTE      WDT_CONTR
      000000B8H.0 SFRSYM    DATA     BIT       PX0
      000000A0H.5 SFRSYM    DATA     BIT       LCD_RS
      000000B8H.2 SFRSYM    DATA     BIT       PX1
      000000F2H   SFRSYM    DATA     BYTE      PCA_PWM0
      000000F3H   SFRSYM    DATA     BYTE      PCA_PWM1
      000000F4H   SFRSYM    DATA     BYTE      PCA_PWM2
      0000009DH   SFRSYM    DATA     BYTE      P1ASF
      00000083H   SFRSYM    DATA     BYTE      DPH
      000000A0H.4 SFRSYM    DATA     BIT       LCD_RW
      000000D1H   SFRSYM    DATA     BYTE      T3T4M
      000000D1H   SFRSYM    DATA     BYTE      T4T3M
      000000BEH   SFRSYM    DATA     BYTE      ADC_RESL
      00000082H   SFRSYM    DATA     BYTE      DPL
      000000CDH   SFRSYM    DATA     BYTE      SPSTAT
      0000009BH   SFRSYM    DATA     BYTE      S2BUF
      000000ADH   SFRSYM    DATA     BYTE      S3BUF
      00000085H   SFRSYM    DATA     BYTE      S4BUF
      00000098H.4 SFRSYM    DATA     BIT       REN
      0000009AH   SFRSYM    DATA     BYTE      S2CON
      000000ACH   SFRSYM    DATA     BYTE      S3CON
      00000084H   SFRSYM    DATA     BYTE      S4CON
      000000B9H   SFRSYM    DATA     BYTE      SADEN
      000000A9H   SFRSYM    DATA     BYTE      SADDR
      000000C6H   SFRSYM    DATA     BYTE      IAP_TRIG
      000000A2H   SFRSYM    DATA     BYTE      AUXR1
      000000D0H.5 SFRSYM    DATA     BIT       F0
      0000008FH   SFRSYM    DATA     BYTE      INT_CLKO
      000000D0H.1 SFRSYM    DATA     BIT       F1
      000000D0H   SFRSYM    DATA     BYTE      PSW
      000000D8H.0 SFRSYM    DATA     BIT       CCF0
      000000D8H.1 SFRSYM    DATA     BIT       CCF1
      000000CFH   SFRSYM    DATA     BYTE      SPDAT
      00000094H   SFRSYM    DATA     BYTE      P0M0
      01001268H   SYMBOL    CONST    ---       _?ix1000

      01000BA8H   BLOCK     CODE     ---       LVL=0
      01000BA8H   LINE      CODE     ---       #30
      01000BA8H   LINE      CODE     ---       #31
      01000BA8H   LINE      CODE     ---       #32
      01000BCAH   LINE      CODE     ---       #33
      01000BECH   LINE      CODE     ---       #35
LX51 LINKER/LOCATER V4.66.93.0                                                        05/07/2023  14:12:54  PAGE 28


      01000C0EH   LINE      CODE     ---       #36
      ---         BLOCKEND  ---      ---       LVL=0

      01000C30H   BLOCK     CODE     ---       LVL=0
      01000C30H   LINE      CODE     ---       #39
      01000C30H   LINE      CODE     ---       #40
      01000C30H   LINE      CODE     ---       #41
      01000C52H   LINE      CODE     ---       #42
      01000C74H   LINE      CODE     ---       #44
      01000C96H   LINE      CODE     ---       #45
      ---         BLOCKEND  ---      ---       LVL=0

      01000F19H   BLOCK     CODE     ---       LVL=0
      01000F19H   LINE      CODE     ---       #48
      01000F19H   LINE      CODE     ---       #49
      01000F19H   LINE      CODE     ---       #50
      01000F3BH   LINE      CODE     ---       #51
      01000F5DH   LINE      CODE     ---       #53
      ---         BLOCKEND  ---      ---       LVL=0

      01000E40H   BLOCK     CODE     ---       LVL=0
      01000E40H   BLOCK     CODE     NEAR LAB  LVL=1
      0200007FH   SYMBOL    XDATA    ---       buffer
      ---         BLOCKEND  ---      ---       LVL=1
      01000E40H   LINE      CODE     ---       #56
      01000E40H   LINE      CODE     ---       #57
      01000E40H   LINE      CODE     ---       #58
      01000E53H   LINE      CODE     ---       #59
      01000EB5H   LINE      CODE     ---       #60
      ---         BLOCKEND  ---      ---       LVL=0

      0100114BH   BLOCK     CODE     ---       LVL=0
      0100114BH   BLOCK     CODE     NEAR LAB  LVL=1
      0200007FH   SYMBOL    XDATA    BYTE      key_value
      ---         BLOCKEND  ---      ---       LVL=1
      0100114BH   LINE      CODE     ---       #64
      0100114BH   LINE      CODE     ---       #65
      0100114BH   LINE      CODE     ---       #66
      01001150H   LINE      CODE     ---       #67
      01001153H   LINE      CODE     ---       #68
      01001153H   LINE      CODE     ---       #69
      01001159H   LINE      CODE     ---       #70
      0100115CH   LINE      CODE     ---       #71
      0100115CH   LINE      CODE     ---       #72
      01001162H   LINE      CODE     ---       #73
      01001162H   LINE      CODE     ---       #74
      01001165H   LINE      CODE     ---       #75
      01001165H   LINE      CODE     ---       #77
      0100116AH   LINE      CODE     ---       #78
      ---         BLOCKEND  ---      ---       LVL=0

      0100061DH   BLOCK     CODE     ---       LVL=0
      0100061DH   BLOCK     CODE     NEAR LAB  LVL=1
      0200007DH   SYMBOL    XDATA    BYTE      i
      0200007EH   SYMBOL    XDATA    BYTE      key_v
      ---         BLOCKEND  ---      ---       LVL=1
      0100061DH   LINE      CODE     ---       #81
      0100061DH   LINE      CODE     ---       #82
      0100061DH   LINE      CODE     ---       #83
      01000622H   LINE      CODE     ---       #84
      01000624H   LINE      CODE     ---       #86
      01000627H   LINE      CODE     ---       #87
      0100062AH   LINE      CODE     ---       #88
      0100062DH   LINE      CODE     ---       #89
      01000630H   LINE      CODE     ---       #90
LX51 LINKER/LOCATER V4.66.93.0                                                        05/07/2023  14:12:54  PAGE 29


      01000633H   LINE      CODE     ---       #92
      01000635H   LINE      CODE     ---       #93
      01000637H   LINE      CODE     ---       #95
      01000637H   LINE      CODE     ---       #96
      01000637H   LINE      CODE     ---       #97
      0100063FH   LINE      CODE     ---       #98
      01000641H   LINE      CODE     ---       #99
      01000654H   LINE      CODE     ---       #101
      0100065AH   LINE      CODE     ---       #102
      0100065AH   LINE      CODE     ---       #104
      010006B9H   LINE      CODE     ---       #107
      010006C4H   LINE      CODE     ---       #109
      010006E1H   LINE      CODE     ---       #110
      010006F8H   LINE      CODE     ---       #111
      01000716H   LINE      CODE     ---       #112
      0100072DH   LINE      CODE     ---       #114
      01000730H   LINE      CODE     ---       #116
      01000732H   LINE      CODE     ---       #117
      01000732H   LINE      CODE     ---       #119
      0100075AH   LINE      CODE     ---       #120
      0100075AH   LINE      CODE     ---       #121
      0100075CH   LINE      CODE     ---       #122
      0100075EH   LINE      CODE     ---       #123
      01000760H   LINE      CODE     ---       #125
      01000760H   LINE      CODE     ---       #126
      01000762H   LINE      CODE     ---       #127
      01000764H   LINE      CODE     ---       #128
      01000764H   LINE      CODE     ---       #133
      0100078DH   LINE      CODE     ---       #134
      0100078DH   LINE      CODE     ---       #135
      0100078FH   LINE      CODE     ---       #136
      01000791H   LINE      CODE     ---       #138
      01000793H   LINE      CODE     ---       #140
      010007A2H   LINE      CODE     ---       #141
      010007A2H   LINE      CODE     ---       #142
      010007A4H   LINE      CODE     ---       #143
      010007A6H   LINE      CODE     ---       #145
      010007A8H   LINE      CODE     ---       #147
      010007BDH   LINE      CODE     ---       #148
      010007BDH   LINE      CODE     ---       #149
      010007BFH   LINE      CODE     ---       #150
      010007C1H   LINE      CODE     ---       #152
      010007C3H   LINE      CODE     ---       #155
      010007C9H   LINE      CODE     ---       #156
      010007C9H   LINE      CODE     ---       #157
      010007CCH   LINE      CODE     ---       #158
      010007CCH   LINE      CODE     ---       #159
      010007D4H   LINE      CODE     ---       #160
      010007D4H   LINE      CODE     ---       #161
      010007D7H   LINE      CODE     ---       #162
      010007D7H   LINE      CODE     ---       #163
      010007E2H   LINE      CODE     ---       #164
      010007E2H   LINE      CODE     ---       #165
      010007E5H   LINE      CODE     ---       #166
      010007E5H   LINE      CODE     ---       #167
      ---         BLOCKEND  ---      ---       LVL=0

      01000FB6H   BLOCK     CODE     ---       LVL=0
      01000FBEH   BLOCK     CODE     NEAR LAB  LVL=1
      02000157H   SYMBOL    XDATA    WORD      T0Count
      ---         BLOCKEND  ---      ---       LVL=1
      01000FB6H   LINE      CODE     ---       #170
      01000FBEH   LINE      CODE     ---       #173
      01000FCCH   LINE      CODE     ---       #174
      01000FDBH   LINE      CODE     ---       #175
LX51 LINKER/LOCATER V4.66.93.0                                                        05/07/2023  14:12:54  PAGE 30


      01000FDBH   LINE      CODE     ---       #176
      01000FDFH   LINE      CODE     ---       #177
      01000FE1H   LINE      CODE     ---       #178
      01000FE1H   LINE      CODE     ---       #179
      ---         BLOCKEND  ---      ---       LVL=0

      ---         MODULE    ---      ---       TIMER0
      0100119FH   PUBLIC    CODE     ---       Timer0_Init
      000000D8H.2 SFRSYM    DATA     BIT       CCF2
      00000092H   SFRSYM    DATA     BYTE      P1M0
      00000093H   SFRSYM    DATA     BYTE      P0M1
      00000096H   SFRSYM    DATA     BYTE      P2M0
      00000091H   SFRSYM    DATA     BYTE      P1M1
      00000080H   SFRSYM    DATA     BYTE      P0
      000000B2H   SFRSYM    DATA     BYTE      P3M0
      00000095H   SFRSYM    DATA     BYTE      P2M1
      00000090H   SFRSYM    DATA     BYTE      P1
      000000B4H   SFRSYM    DATA     BYTE      P4M0
      000000B1H   SFRSYM    DATA     BYTE      P3M1
      000000A0H   SFRSYM    DATA     BYTE      P2
      000000ABH   SFRSYM    DATA     BYTE      WKTCH
      000000CAH   SFRSYM    DATA     BYTE      P5M0
      000000B3H   SFRSYM    DATA     BYTE      P4M1
      000000B0H   SFRSYM    DATA     BYTE      P3
      000000CCH   SFRSYM    DATA     BYTE      P6M0
      000000C9H   SFRSYM    DATA     BYTE      P5M1
      000000C0H   SFRSYM    DATA     BYTE      P4
      000000D0H.6 SFRSYM    DATA     BIT       AC
      000000F6H   SFRSYM    DATA     BYTE      PWMIF
      000000E2H   SFRSYM    DATA     BYTE      P7M0
      000000CBH   SFRSYM    DATA     BYTE      P6M1
      000000C8H   SFRSYM    DATA     BYTE      P5
      000000A8H.7 SFRSYM    DATA     BIT       EA
      000000E1H   SFRSYM    DATA     BYTE      P7M1
      000000E8H   SFRSYM    DATA     BYTE      P6
      000000AAH   SFRSYM    DATA     BYTE      WKTCL
      000000F8H   SFRSYM    DATA     BYTE      P7
      000000CEH   SFRSYM    DATA     BYTE      SPCTL
      000000D8H.7 SFRSYM    DATA     BIT       CF
      000000F5H   SFRSYM    DATA     BYTE      PWMCR
      000000F9H   SFRSYM    DATA     BYTE      CH
      000000A2H   SFRSYM    DATA     BYTE      P_SW1
      000000BAH   SFRSYM    DATA     BYTE      P_SW2
      000000A8H.5 SFRSYM    DATA     BIT       EADC
      000000A8H   SFRSYM    DATA     BYTE      IE
      000000E9H   SFRSYM    DATA     BYTE      CL
      000000C5H   SFRSYM    DATA     BYTE      IAP_CMD
      000000FAH   SFRSYM    DATA     BYTE      CCAP0H
      000000FBH   SFRSYM    DATA     BYTE      CCAP1H
      000000FCH   SFRSYM    DATA     BYTE      CCAP2H
      000000BDH   SFRSYM    DATA     BYTE      ADC_RES
      000000EAH   SFRSYM    DATA     BYTE      CCAP0L
      000000D8H.6 SFRSYM    DATA     BIT       CR
      000000F7H   SFRSYM    DATA     BYTE      PWMFDCR
      000000EBH   SFRSYM    DATA     BYTE      CCAP1L
      000000DAH   SFRSYM    DATA     BYTE      CCAPM0
      000000ECH   SFRSYM    DATA     BYTE      CCAP2L
      000000DBH   SFRSYM    DATA     BYTE      CCAPM1
      000000DCH   SFRSYM    DATA     BYTE      CCAPM2
      000000A8H.4 SFRSYM    DATA     BIT       ES
      000000B8H.5 SFRSYM    DATA     BIT       PADC
      000000B8H   SFRSYM    DATA     BYTE      IP
      00000098H.0 SFRSYM    DATA     BIT       RI
      000000D0H.7 SFRSYM    DATA     BIT       CY
      00000098H.1 SFRSYM    DATA     BIT       TI
LX51 LINKER/LOCATER V4.66.93.0                                                        05/07/2023  14:12:54  PAGE 31


      00000097H   SFRSYM    DATA     BYTE      CLK_DIV
      000000C3H   SFRSYM    DATA     BYTE      IAP_ADDRH
      000000B8H.4 SFRSYM    DATA     BIT       PS
      00000081H   SFRSYM    DATA     BYTE      SP
      000000D9H   SFRSYM    DATA     BYTE      CMOD
      000000D8H   SFRSYM    DATA     BYTE      CCON
      000000C4H   SFRSYM    DATA     BYTE      IAP_ADDRL
      000000B8H.7 SFRSYM    DATA     BIT       PPCA
      000000D0H.2 SFRSYM    DATA     BIT       OV
      000000E6H   SFRSYM    DATA     BYTE      CMPCR1
      000000E7H   SFRSYM    DATA     BYTE      CMPCR2
      000000A8H.6 SFRSYM    DATA     BIT       ELVD
      00000080H.0 SFRSYM    DATA     BIT       P00
      000000BCH   SFRSYM    DATA     BYTE      ADC_CONTR
      00000099H   SFRSYM    DATA     BYTE      SBUF
      00000087H   SFRSYM    DATA     BYTE      PCON
      00000090H.0 SFRSYM    DATA     BIT       P10
      00000080H.1 SFRSYM    DATA     BIT       P01
      000000A0H.0 SFRSYM    DATA     BIT       P20
      00000090H.1 SFRSYM    DATA     BIT       P11
      00000080H.2 SFRSYM    DATA     BIT       P02
      000000B0H.0 SFRSYM    DATA     BIT       P30
      000000A0H.1 SFRSYM    DATA     BIT       P21
      00000090H.2 SFRSYM    DATA     BIT       P12
      00000080H.3 SFRSYM    DATA     BIT       P03
      00000098H   SFRSYM    DATA     BYTE      SCON
      000000C0H.0 SFRSYM    DATA     BIT       P40
      000000B0H.1 SFRSYM    DATA     BIT       P31
      000000A0H.2 SFRSYM    DATA     BIT       P22
      00000090H.3 SFRSYM    DATA     BIT       P13
      00000080H.4 SFRSYM    DATA     BIT       P04
      00000089H   SFRSYM    DATA     BYTE      TMOD
      00000088H   SFRSYM    DATA     BYTE      TCON
      000000C8H.0 SFRSYM    DATA     BIT       P50
      000000C0H.1 SFRSYM    DATA     BIT       P41
      000000B0H.2 SFRSYM    DATA     BIT       P32
      000000A0H.3 SFRSYM    DATA     BIT       P23
      00000090H.4 SFRSYM    DATA     BIT       P14
      00000080H.5 SFRSYM    DATA     BIT       P05
      000000E8H.0 SFRSYM    DATA     BIT       P60
      000000C8H.1 SFRSYM    DATA     BIT       P51
      000000C0H.2 SFRSYM    DATA     BIT       P42
      000000B0H.3 SFRSYM    DATA     BIT       P33
      000000A0H.4 SFRSYM    DATA     BIT       P24
      00000090H.5 SFRSYM    DATA     BIT       P15
      00000080H.6 SFRSYM    DATA     BIT       P06
      000000B8H.6 SFRSYM    DATA     BIT       PLVD
      000000F8H.0 SFRSYM    DATA     BIT       P70
      000000E8H.1 SFRSYM    DATA     BIT       P61
      000000C8H.2 SFRSYM    DATA     BIT       P52
      000000C0H.3 SFRSYM    DATA     BIT       P43
      000000B0H.4 SFRSYM    DATA     BIT       P34
      000000A0H.5 SFRSYM    DATA     BIT       P25
      00000090H.6 SFRSYM    DATA     BIT       P16
      00000080H.7 SFRSYM    DATA     BIT       P07
      000000F8H.1 SFRSYM    DATA     BIT       P71
      000000E8H.2 SFRSYM    DATA     BIT       P62
      000000C8H.3 SFRSYM    DATA     BIT       P53
      000000C0H.4 SFRSYM    DATA     BIT       P44
      000000B0H.5 SFRSYM    DATA     BIT       P35
      000000A0H.6 SFRSYM    DATA     BIT       P26
      00000090H.7 SFRSYM    DATA     BIT       P17
      000000F8H.2 SFRSYM    DATA     BIT       P72
      000000E8H.3 SFRSYM    DATA     BIT       P63
      000000C8H.4 SFRSYM    DATA     BIT       P54
LX51 LINKER/LOCATER V4.66.93.0                                                        05/07/2023  14:12:54  PAGE 32


      000000C0H.5 SFRSYM    DATA     BIT       P45
      000000B0H.6 SFRSYM    DATA     BIT       P36
      000000A0H.7 SFRSYM    DATA     BIT       P27
      000000F8H.3 SFRSYM    DATA     BIT       P73
      000000E8H.4 SFRSYM    DATA     BIT       P64
      000000C8H.5 SFRSYM    DATA     BIT       P55
      000000C0H.6 SFRSYM    DATA     BIT       P46
      000000B0H.7 SFRSYM    DATA     BIT       P37
      000000F8H.4 SFRSYM    DATA     BIT       P74
      000000E8H.5 SFRSYM    DATA     BIT       P65
      000000C8H.6 SFRSYM    DATA     BIT       P56
      000000C0H.7 SFRSYM    DATA     BIT       P47
      000000F8H.5 SFRSYM    DATA     BIT       P75
      000000E8H.6 SFRSYM    DATA     BIT       P66
      000000C8H.7 SFRSYM    DATA     BIT       P57
      000000F8H.6 SFRSYM    DATA     BIT       P76
      000000E8H.7 SFRSYM    DATA     BIT       P67
      00000088H.1 SFRSYM    DATA     BIT       IE0
      000000A1H   SFRSYM    DATA     BYTE      BUS_SPEED
      000000F8H.7 SFRSYM    DATA     BIT       P77
      00000088H.3 SFRSYM    DATA     BIT       IE1
      000000AFH   SFRSYM    DATA     BYTE      IE2
      0000008EH   SFRSYM    DATA     BYTE      AUXR
      000000F0H   SFRSYM    DATA     BYTE      B
      000000C7H   SFRSYM    DATA     BYTE      IAP_CONTR
      000000F1H   SFRSYM    DATA     BYTE      PWMCFG
      000000E0H   SFRSYM    DATA     BYTE      ACC
      000000A8H.1 SFRSYM    DATA     BIT       ET0
      00000088H.5 SFRSYM    DATA     BIT       TF0
      000000A8H.3 SFRSYM    DATA     BIT       ET1
      00000088H.7 SFRSYM    DATA     BIT       TF1
      000000B5H   SFRSYM    DATA     BYTE      IP2
      00000098H.2 SFRSYM    DATA     BIT       RB8
      0000008CH   SFRSYM    DATA     BYTE      TH0
      0000008DH   SFRSYM    DATA     BYTE      TH1
      00000088H.0 SFRSYM    DATA     BIT       IT0
      000000A8H.0 SFRSYM    DATA     BIT       EX0
      00000098H.3 SFRSYM    DATA     BIT       TB8
      000000D6H   SFRSYM    DATA     BYTE      T2H
      00000088H.2 SFRSYM    DATA     BIT       IT1
      000000A8H.2 SFRSYM    DATA     BIT       EX1
      000000D4H   SFRSYM    DATA     BYTE      T3H
      000000D0H.0 SFRSYM    DATA     BIT       P
      00000098H.7 SFRSYM    DATA     BIT       SM0
      000000D2H   SFRSYM    DATA     BYTE      T4H
      0000008AH   SFRSYM    DATA     BYTE      TL0
      00000098H.6 SFRSYM    DATA     BIT       SM1
      0000008BH   SFRSYM    DATA     BYTE      TL1
      00000098H.5 SFRSYM    DATA     BIT       SM2
      000000D7H   SFRSYM    DATA     BYTE      T2L
      000000D5H   SFRSYM    DATA     BYTE      T3L
      000000D3H   SFRSYM    DATA     BYTE      T4L
      000000B8H.1 SFRSYM    DATA     BIT       PT0
      000000B8H.3 SFRSYM    DATA     BIT       PT1
      000000D0H.3 SFRSYM    DATA     BIT       RS0
      000000C2H   SFRSYM    DATA     BYTE      IAP_DATA
      00000088H.4 SFRSYM    DATA     BIT       TR0
      000000D0H.4 SFRSYM    DATA     BIT       RS1
      00000088H.6 SFRSYM    DATA     BIT       TR1
      000000C1H   SFRSYM    DATA     BYTE      WDT_CONTR
      000000B8H.0 SFRSYM    DATA     BIT       PX0
      000000B8H.2 SFRSYM    DATA     BIT       PX1
      000000F2H   SFRSYM    DATA     BYTE      PCA_PWM0
      000000F3H   SFRSYM    DATA     BYTE      PCA_PWM1
      000000F4H   SFRSYM    DATA     BYTE      PCA_PWM2
LX51 LINKER/LOCATER V4.66.93.0                                                        05/07/2023  14:12:54  PAGE 33


      0000009DH   SFRSYM    DATA     BYTE      P1ASF
      00000083H   SFRSYM    DATA     BYTE      DPH
      000000D1H   SFRSYM    DATA     BYTE      T3T4M
      000000D1H   SFRSYM    DATA     BYTE      T4T3M
      000000BEH   SFRSYM    DATA     BYTE      ADC_RESL
      00000082H   SFRSYM    DATA     BYTE      DPL
      000000CDH   SFRSYM    DATA     BYTE      SPSTAT
      0000009BH   SFRSYM    DATA     BYTE      S2BUF
      000000ADH   SFRSYM    DATA     BYTE      S3BUF
      00000085H   SFRSYM    DATA     BYTE      S4BUF
      00000098H.4 SFRSYM    DATA     BIT       REN
      0000009AH   SFRSYM    DATA     BYTE      S2CON
      000000ACH   SFRSYM    DATA     BYTE      S3CON
      00000084H   SFRSYM    DATA     BYTE      S4CON
      000000B9H   SFRSYM    DATA     BYTE      SADEN
      000000A9H   SFRSYM    DATA     BYTE      SADDR
      000000C6H   SFRSYM    DATA     BYTE      IAP_TRIG
      000000A2H   SFRSYM    DATA     BYTE      AUXR1
      000000D0H.5 SFRSYM    DATA     BIT       F0
      0000008FH   SFRSYM    DATA     BYTE      INT_CLKO
      000000D0H.1 SFRSYM    DATA     BIT       F1
      000000D0H   SFRSYM    DATA     BYTE      PSW
      000000D8H.0 SFRSYM    DATA     BIT       CCF0
      000000D8H.1 SFRSYM    DATA     BIT       CCF1
      000000CFH   SFRSYM    DATA     BYTE      SPDAT
      00000094H   SFRSYM    DATA     BYTE      P0M0

      0100119FH   BLOCK     CODE     ---       LVL=0
      0100119FH   LINE      CODE     ---       #8
      0100119FH   LINE      CODE     ---       #9
      0100119FH   LINE      CODE     ---       #10
      010011A2H   LINE      CODE     ---       #11
      010011A5H   LINE      CODE     ---       #12
      010011A8H   LINE      CODE     ---       #13
      010011ABH   LINE      CODE     ---       #14
      010011ADH   LINE      CODE     ---       #15
      010011AFH   LINE      CODE     ---       #17
      010011B1H   LINE      CODE     ---       #18
      010011B3H   LINE      CODE     ---       #19
      010011B5H   LINE      CODE     ---       #20
      ---         BLOCKEND  ---      ---       LVL=0

      ---         MODULE    ---      ---       UART
      02000123H   PUBLIC    XDATA    ---       rec_buf
      00000021H.2 PUBLIC    BIT      BIT       busy
      02000122H   PUBLIC    XDATA    BYTE      RX_Count
      0100109AH   PUBLIC    CODE     ---       Uart02_Routine
      0100116BH   PUBLIC    CODE     ---       Uart02_Init
      0100104AH   PUBLIC    CODE     ---       Uart01_Routine
      01001209H   PUBLIC    CODE     ---       _UART01_SendByte
      01000FEAH   PUBLIC    CODE     ---       _UART01_SendString
      01000026H   PUBLIC    CODE     ---       UART01_Init
      0200007FH   PUBLIC    XDATA    BYTE      ?_Devide_DataPacket?BYTE
      010007E8H   PUBLIC    CODE     ---       _Devide_DataPacket
      01000D3CH   PUBLIC    CODE     ---       _Rec_DataPacket
      000000D8H.2 SFRSYM    DATA     BIT       CCF2
      00000092H   SFRSYM    DATA     BYTE      P1M0
      00000093H   SFRSYM    DATA     BYTE      P0M1
      00000096H   SFRSYM    DATA     BYTE      P2M0
      00000091H   SFRSYM    DATA     BYTE      P1M1
      00000080H   SFRSYM    DATA     BYTE      P0
      000000B2H   SFRSYM    DATA     BYTE      P3M0
      00000095H   SFRSYM    DATA     BYTE      P2M1
      00000090H   SFRSYM    DATA     BYTE      P1
      000000B4H   SFRSYM    DATA     BYTE      P4M0
LX51 LINKER/LOCATER V4.66.93.0                                                        05/07/2023  14:12:54  PAGE 34


      000000B1H   SFRSYM    DATA     BYTE      P3M1
      000000A0H   SFRSYM    DATA     BYTE      P2
      000000ABH   SFRSYM    DATA     BYTE      WKTCH
      000000CAH   SFRSYM    DATA     BYTE      P5M0
      000000B3H   SFRSYM    DATA     BYTE      P4M1
      000000B0H   SFRSYM    DATA     BYTE      P3
      000000CCH   SFRSYM    DATA     BYTE      P6M0
      000000C9H   SFRSYM    DATA     BYTE      P5M1
      000000C0H   SFRSYM    DATA     BYTE      P4
      000000D0H.6 SFRSYM    DATA     BIT       AC
      000000F6H   SFRSYM    DATA     BYTE      PWMIF
      000000E2H   SFRSYM    DATA     BYTE      P7M0
      000000CBH   SFRSYM    DATA     BYTE      P6M1
      000000C8H   SFRSYM    DATA     BYTE      P5
      000000A8H.7 SFRSYM    DATA     BIT       EA
      000000E1H   SFRSYM    DATA     BYTE      P7M1
      000000E8H   SFRSYM    DATA     BYTE      P6
      000000AAH   SFRSYM    DATA     BYTE      WKTCL
      000000F8H   SFRSYM    DATA     BYTE      P7
      000000CEH   SFRSYM    DATA     BYTE      SPCTL
      000000D8H.7 SFRSYM    DATA     BIT       CF
      000000F5H   SFRSYM    DATA     BYTE      PWMCR
      000000F9H   SFRSYM    DATA     BYTE      CH
      000000A2H   SFRSYM    DATA     BYTE      P_SW1
      000000BAH   SFRSYM    DATA     BYTE      P_SW2
      000000A8H.5 SFRSYM    DATA     BIT       EADC
      000000A8H   SFRSYM    DATA     BYTE      IE
      000000E9H   SFRSYM    DATA     BYTE      CL
      000000C5H   SFRSYM    DATA     BYTE      IAP_CMD
      000000FAH   SFRSYM    DATA     BYTE      CCAP0H
      000000FBH   SFRSYM    DATA     BYTE      CCAP1H
      000000FCH   SFRSYM    DATA     BYTE      CCAP2H
      000000BDH   SFRSYM    DATA     BYTE      ADC_RES
      000000EAH   SFRSYM    DATA     BYTE      CCAP0L
      000000D8H.6 SFRSYM    DATA     BIT       CR
      000000F7H   SFRSYM    DATA     BYTE      PWMFDCR
      000000EBH   SFRSYM    DATA     BYTE      CCAP1L
      000000DAH   SFRSYM    DATA     BYTE      CCAPM0
      000000ECH   SFRSYM    DATA     BYTE      CCAP2L
      000000DBH   SFRSYM    DATA     BYTE      CCAPM1
      000000DCH   SFRSYM    DATA     BYTE      CCAPM2
      000000A8H.4 SFRSYM    DATA     BIT       ES
      000000B8H.5 SFRSYM    DATA     BIT       PADC
      000000B8H   SFRSYM    DATA     BYTE      IP
      00000098H.0 SFRSYM    DATA     BIT       RI
      000000D0H.7 SFRSYM    DATA     BIT       CY
      00000098H.1 SFRSYM    DATA     BIT       TI
      00000097H   SFRSYM    DATA     BYTE      CLK_DIV
      000000C3H   SFRSYM    DATA     BYTE      IAP_ADDRH
      000000B8H.4 SFRSYM    DATA     BIT       PS
      00000081H   SFRSYM    DATA     BYTE      SP
      000000D9H   SFRSYM    DATA     BYTE      CMOD
      000000D8H   SFRSYM    DATA     BYTE      CCON
      000000C4H   SFRSYM    DATA     BYTE      IAP_ADDRL
      000000B8H.7 SFRSYM    DATA     BIT       PPCA
      000000D0H.2 SFRSYM    DATA     BIT       OV
      000000E6H   SFRSYM    DATA     BYTE      CMPCR1
      000000E7H   SFRSYM    DATA     BYTE      CMPCR2
      000000A8H.6 SFRSYM    DATA     BIT       ELVD
      00000080H.0 SFRSYM    DATA     BIT       P00
      000000BCH   SFRSYM    DATA     BYTE      ADC_CONTR
      00000099H   SFRSYM    DATA     BYTE      SBUF
      00000087H   SFRSYM    DATA     BYTE      PCON
      00000090H.0 SFRSYM    DATA     BIT       P10
      00000080H.1 SFRSYM    DATA     BIT       P01
LX51 LINKER/LOCATER V4.66.93.0                                                        05/07/2023  14:12:54  PAGE 35


      000000A0H.0 SFRSYM    DATA     BIT       P20
      00000090H.1 SFRSYM    DATA     BIT       P11
      00000080H.2 SFRSYM    DATA     BIT       P02
      000000B0H.0 SFRSYM    DATA     BIT       P30
      000000A0H.1 SFRSYM    DATA     BIT       P21
      00000090H.2 SFRSYM    DATA     BIT       P12
      00000080H.3 SFRSYM    DATA     BIT       P03
      00000098H   SFRSYM    DATA     BYTE      SCON
      000000C0H.0 SFRSYM    DATA     BIT       P40
      000000B0H.1 SFRSYM    DATA     BIT       P31
      000000A0H.2 SFRSYM    DATA     BIT       P22
      00000090H.3 SFRSYM    DATA     BIT       P13
      00000080H.4 SFRSYM    DATA     BIT       P04
      00000089H   SFRSYM    DATA     BYTE      TMOD
      00000088H   SFRSYM    DATA     BYTE      TCON
      000000C8H.0 SFRSYM    DATA     BIT       P50
      000000C0H.1 SFRSYM    DATA     BIT       P41
      000000B0H.2 SFRSYM    DATA     BIT       P32
      000000A0H.3 SFRSYM    DATA     BIT       P23
      00000090H.4 SFRSYM    DATA     BIT       P14
      00000080H.5 SFRSYM    DATA     BIT       P05
      000000E8H.0 SFRSYM    DATA     BIT       P60
      000000C8H.1 SFRSYM    DATA     BIT       P51
      000000C0H.2 SFRSYM    DATA     BIT       P42
      000000B0H.3 SFRSYM    DATA     BIT       P33
      000000A0H.4 SFRSYM    DATA     BIT       P24
      00000090H.5 SFRSYM    DATA     BIT       P15
      00000080H.6 SFRSYM    DATA     BIT       P06
      000000B8H.6 SFRSYM    DATA     BIT       PLVD
      000000F8H.0 SFRSYM    DATA     BIT       P70
      000000E8H.1 SFRSYM    DATA     BIT       P61
      000000C8H.2 SFRSYM    DATA     BIT       P52
      000000C0H.3 SFRSYM    DATA     BIT       P43
      000000B0H.4 SFRSYM    DATA     BIT       P34
      000000A0H.5 SFRSYM    DATA     BIT       P25
      00000090H.6 SFRSYM    DATA     BIT       P16
      00000080H.7 SFRSYM    DATA     BIT       P07
      000000F8H.1 SFRSYM    DATA     BIT       P71
      000000E8H.2 SFRSYM    DATA     BIT       P62
      000000C8H.3 SFRSYM    DATA     BIT       P53
      000000C0H.4 SFRSYM    DATA     BIT       P44
      000000B0H.5 SFRSYM    DATA     BIT       P35
      000000A0H.6 SFRSYM    DATA     BIT       P26
      00000090H.7 SFRSYM    DATA     BIT       P17
      000000F8H.2 SFRSYM    DATA     BIT       P72
      000000E8H.3 SFRSYM    DATA     BIT       P63
      000000C8H.4 SFRSYM    DATA     BIT       P54
      000000C0H.5 SFRSYM    DATA     BIT       P45
      000000B0H.6 SFRSYM    DATA     BIT       P36
      000000A0H.7 SFRSYM    DATA     BIT       P27
      000000F8H.3 SFRSYM    DATA     BIT       P73
      000000E8H.4 SFRSYM    DATA     BIT       P64
      000000C8H.5 SFRSYM    DATA     BIT       P55
      000000C0H.6 SFRSYM    DATA     BIT       P46
      000000B0H.7 SFRSYM    DATA     BIT       P37
      000000F8H.4 SFRSYM    DATA     BIT       P74
      000000E8H.5 SFRSYM    DATA     BIT       P65
      000000C8H.6 SFRSYM    DATA     BIT       P56
      000000C0H.7 SFRSYM    DATA     BIT       P47
      000000F8H.5 SFRSYM    DATA     BIT       P75
      000000E8H.6 SFRSYM    DATA     BIT       P66
      000000C8H.7 SFRSYM    DATA     BIT       P57
      000000F8H.6 SFRSYM    DATA     BIT       P76
      000000E8H.7 SFRSYM    DATA     BIT       P67
      00000088H.1 SFRSYM    DATA     BIT       IE0
LX51 LINKER/LOCATER V4.66.93.0                                                        05/07/2023  14:12:54  PAGE 36


      000000A1H   SFRSYM    DATA     BYTE      BUS_SPEED
      000000F8H.7 SFRSYM    DATA     BIT       P77
      00000088H.3 SFRSYM    DATA     BIT       IE1
      000000AFH   SFRSYM    DATA     BYTE      IE2
      0000008EH   SFRSYM    DATA     BYTE      AUXR
      000000F0H   SFRSYM    DATA     BYTE      B
      000000C7H   SFRSYM    DATA     BYTE      IAP_CONTR
      000000F1H   SFRSYM    DATA     BYTE      PWMCFG
      000000E0H   SFRSYM    DATA     BYTE      ACC
      000000A8H.1 SFRSYM    DATA     BIT       ET0
      00000088H.5 SFRSYM    DATA     BIT       TF0
      000000A8H.3 SFRSYM    DATA     BIT       ET1
      00000088H.7 SFRSYM    DATA     BIT       TF1
      000000B5H   SFRSYM    DATA     BYTE      IP2
      00000098H.2 SFRSYM    DATA     BIT       RB8
      0000008CH   SFRSYM    DATA     BYTE      TH0
      0000008DH   SFRSYM    DATA     BYTE      TH1
      00000088H.0 SFRSYM    DATA     BIT       IT0
      000000A8H.0 SFRSYM    DATA     BIT       EX0
      00000098H.3 SFRSYM    DATA     BIT       TB8
      000000D6H   SFRSYM    DATA     BYTE      T2H
      00000088H.2 SFRSYM    DATA     BIT       IT1
      000000A8H.2 SFRSYM    DATA     BIT       EX1
      000000D4H   SFRSYM    DATA     BYTE      T3H
      000000D0H.0 SFRSYM    DATA     BIT       P
      00000098H.7 SFRSYM    DATA     BIT       SM0
      000000D2H   SFRSYM    DATA     BYTE      T4H
      0000008AH   SFRSYM    DATA     BYTE      TL0
      00000098H.6 SFRSYM    DATA     BIT       SM1
      0000008BH   SFRSYM    DATA     BYTE      TL1
      00000098H.5 SFRSYM    DATA     BIT       SM2
      000000D7H   SFRSYM    DATA     BYTE      T2L
      000000D5H   SFRSYM    DATA     BYTE      T3L
      000000D3H   SFRSYM    DATA     BYTE      T4L
      000000B8H.1 SFRSYM    DATA     BIT       PT0
      000000B8H.3 SFRSYM    DATA     BIT       PT1
      000000D0H.3 SFRSYM    DATA     BIT       RS0
      000000C2H   SFRSYM    DATA     BYTE      IAP_DATA
      00000088H.4 SFRSYM    DATA     BIT       TR0
      000000D0H.4 SFRSYM    DATA     BIT       RS1
      00000088H.6 SFRSYM    DATA     BIT       TR1
      000000C1H   SFRSYM    DATA     BYTE      WDT_CONTR
      000000B8H.0 SFRSYM    DATA     BIT       PX0
      000000B8H.2 SFRSYM    DATA     BIT       PX1
      000000F2H   SFRSYM    DATA     BYTE      PCA_PWM0
      000000F3H   SFRSYM    DATA     BYTE      PCA_PWM1
      000000F4H   SFRSYM    DATA     BYTE      PCA_PWM2
      0000009DH   SFRSYM    DATA     BYTE      P1ASF
      00000083H   SFRSYM    DATA     BYTE      DPH
      000000D1H   SFRSYM    DATA     BYTE      T3T4M
      000000D1H   SFRSYM    DATA     BYTE      T4T3M
      000000BEH   SFRSYM    DATA     BYTE      ADC_RESL
      00000082H   SFRSYM    DATA     BYTE      DPL
      000000CDH   SFRSYM    DATA     BYTE      SPSTAT
      0000009BH   SFRSYM    DATA     BYTE      S2BUF
      000000ADH   SFRSYM    DATA     BYTE      S3BUF
      00000085H   SFRSYM    DATA     BYTE      S4BUF
      00000098H.4 SFRSYM    DATA     BIT       REN
      0000009AH   SFRSYM    DATA     BYTE      S2CON
      000000ACH   SFRSYM    DATA     BYTE      S3CON
      00000084H   SFRSYM    DATA     BYTE      S4CON
      000000B9H   SFRSYM    DATA     BYTE      SADEN
      000000A9H   SFRSYM    DATA     BYTE      SADDR
      000000C6H   SFRSYM    DATA     BYTE      IAP_TRIG
      000000A2H   SFRSYM    DATA     BYTE      AUXR1
LX51 LINKER/LOCATER V4.66.93.0                                                        05/07/2023  14:12:54  PAGE 37


      000000D0H.5 SFRSYM    DATA     BIT       F0
      0000008FH   SFRSYM    DATA     BYTE      INT_CLKO
      000000D0H.1 SFRSYM    DATA     BIT       F1
      000000D0H   SFRSYM    DATA     BYTE      PSW
      000000D8H.0 SFRSYM    DATA     BIT       CCF0
      000000D8H.1 SFRSYM    DATA     BIT       CCF1
      000000CFH   SFRSYM    DATA     BYTE      SPDAT
      00000094H   SFRSYM    DATA     BYTE      P0M0

      01000D3CH   BLOCK     CODE     ---       LVL=0
      0200007BH   SYMBOL    XDATA    BYTE      _data
      01000D41H   BLOCK     CODE     NEAR LAB  LVL=1
      020000EDH   SYMBOL    XDATA    BYTE      i
      020000EEH   SYMBOL    XDATA    ---       tmp_buffer
      ---         BLOCKEND  ---      ---       LVL=1
      01000D3CH   LINE      CODE     ---       #10
      01000D41H   LINE      CODE     ---       #11
      01000D41H   LINE      CODE     ---       #15
      01000D54H   LINE      CODE     ---       #17
      01000D62H   LINE      CODE     ---       #18
      01000D62H   LINE      CODE     ---       #19
      01000D67H   LINE      CODE     ---       #20
      01000D74H   LINE      CODE     ---       #22
      01000D74H   LINE      CODE     ---       #24
      01000D89H   LINE      CODE     ---       #25
      01000D89H   LINE      CODE     ---       #26
      01000D98H   LINE      CODE     ---       #27
      01000DAAH   LINE      CODE     ---       #28
      01000DB9H   LINE      CODE     ---       #29
      01000DBEH   LINE      CODE     ---       #31
      01000DBEH   LINE      CODE     ---       #33
      ---         BLOCKEND  ---      ---       LVL=0

      010007E8H   BLOCK     CODE     ---       LVL=0
      0200007FH   SYMBOL    XDATA    ---       rec_1
      02000082H   SYMBOL    XDATA    ---       rec_2
      02000085H   SYMBOL    XDATA    ---       rec_3
      02000088H   SYMBOL    XDATA    ---       rec_4
      0200008BH   SYMBOL    XDATA    ---       rec_5
      0200008EH   SYMBOL    XDATA    ---       rec_6
      02000091H   SYMBOL    XDATA    ---       rec_7
      02000094H   SYMBOL    XDATA    ---       rec_8
      010007F3H   BLOCK     CODE     NEAR LAB  LVL=1
      00000001H   SYMBOL    DATA     ---       token
      ---         BLOCKEND  ---      ---       LVL=1
      010007E8H   LINE      CODE     ---       #35
      010007F3H   LINE      CODE     ---       #36
      010007F3H   LINE      CODE     ---       #37
      010007F5H   LINE      CODE     ---       #38
      01000805H   LINE      CODE     ---       #39
      01000805H   LINE      CODE     ---       #41
      01000805H   LINE      CODE     ---       #43
      0100081BH   LINE      CODE     ---       #44
      0100082FH   LINE      CODE     ---       #45
      01000846H   LINE      CODE     ---       #46
      0100085AH   LINE      CODE     ---       #47
      01000871H   LINE      CODE     ---       #48
      01000885H   LINE      CODE     ---       #49
      0100089CH   LINE      CODE     ---       #50
      010008B0H   LINE      CODE     ---       #51
      010008C7H   LINE      CODE     ---       #52
      010008DBH   LINE      CODE     ---       #53
      010008F2H   LINE      CODE     ---       #54
      01000906H   LINE      CODE     ---       #55
      0100091DH   LINE      CODE     ---       #56
LX51 LINKER/LOCATER V4.66.93.0                                                        05/07/2023  14:12:54  PAGE 38


      01000931H   LINE      CODE     ---       #57
      01000948H   LINE      CODE     ---       #58
      0100095CH   LINE      CODE     ---       #60
      ---         BLOCKEND  ---      ---       LVL=0

      01000026H   BLOCK     CODE     ---       LVL=0
      01000026H   LINE      CODE     ---       #63
      01000026H   LINE      CODE     ---       #64
      01000026H   LINE      CODE     ---       #65
      01000029H   LINE      CODE     ---       #66
      0100002CH   LINE      CODE     ---       #67
      0100002FH   LINE      CODE     ---       #68
      01000032H   LINE      CODE     ---       #69
      01000035H   LINE      CODE     ---       #70
      01000038H   LINE      CODE     ---       #71
      0100003AH   LINE      CODE     ---       #72
      0100003CH   LINE      CODE     ---       #74
      0100003EH   LINE      CODE     ---       #75
      01000040H   LINE      CODE     ---       #76
      ---         BLOCKEND  ---      ---       LVL=0

      01000FEAH   BLOCK     CODE     ---       LVL=0
      020000C5H   SYMBOL    XDATA    ---       str
      01000FEAH   LINE      CODE     ---       #78
      01000FF5H   LINE      CODE     ---       #79
      01000FF5H   LINE      CODE     ---       #80
      01001005H   LINE      CODE     ---       #81
      0100101CH   LINE      CODE     ---       #83
      ---         BLOCKEND  ---      ---       LVL=0

      01001209H   BLOCK     CODE     ---       LVL=0
      00000007H   SYMBOL    DATA     BYTE      c
      01001209H   LINE      CODE     ---       #85
      01001209H   LINE      CODE     ---       #86
      01001209H   LINE      CODE     ---       #87
      0100120BH   LINE      CODE     ---       #88
      0100120DH   LINE      CODE     ---       #89
      01001210H   LINE      CODE     ---       #90
      01001212H   LINE      CODE     ---       #91
      ---         BLOCKEND  ---      ---       LVL=0

      0100104AH   BLOCK     CODE     ---       LVL=0
      01001057H   BLOCK     CODE     NEAR LAB  LVL=1
      02000079H   SYMBOL    XDATA    BYTE      temp
      0200007AH   SYMBOL    XDATA    CHAR      i
      ---         BLOCKEND  ---      ---       LVL=1
      0100104AH   LINE      CODE     ---       #94
      01001057H   LINE      CODE     ---       #96
      0100105CH   LINE      CODE     ---       #97
      0100105EH   LINE      CODE     ---       #99
      01001061H   LINE      CODE     ---       #100
      01001061H   LINE      CODE     ---       #101
      01001063H   LINE      CODE     ---       #102
      01001068H   LINE      CODE     ---       #103
      01001068H   LINE      CODE     ---       #105
      ---         BLOCKEND  ---      ---       LVL=0

      0100116BH   BLOCK     CODE     ---       LVL=0
      0100116BH   LINE      CODE     ---       #109
      0100116BH   LINE      CODE     ---       #110
      0100116BH   LINE      CODE     ---       #111
      0100116EH   LINE      CODE     ---       #112
      01001171H   LINE      CODE     ---       #113
      01001174H   LINE      CODE     ---       #114
      01001177H   LINE      CODE     ---       #115
LX51 LINKER/LOCATER V4.66.93.0                                                        05/07/2023  14:12:54  PAGE 39


      0100117AH   LINE      CODE     ---       #117
      0100117DH   LINE      CODE     ---       #118
      01001180H   LINE      CODE     ---       #119
      01001182H   LINE      CODE     ---       #121
      01001185H   LINE      CODE     ---       #122
      ---         BLOCKEND  ---      ---       LVL=0
      00000007H   SYMBOL    DATA     BYTE      dat

      0100109AH   BLOCK     CODE     ---       LVL=0
      010010A0H   BLOCK     CODE     NEAR LAB  LVL=1
      0200007CH   SYMBOL    XDATA    BYTE      mydata
      ---         BLOCKEND  ---      ---       LVL=1
      0100109AH   LINE      CODE     ---       #141
      010010A0H   LINE      CODE     ---       #144
      010010A5H   LINE      CODE     ---       #145
      010010A5H   LINE      CODE     ---       #146
      010010A8H   LINE      CODE     ---       #147
      010010AEH   LINE      CODE     ---       #151
      010010AEH   LINE      CODE     ---       #153
      010010B3H   LINE      CODE     ---       #154
      010010B3H   LINE      CODE     ---       #155
      010010B6H   LINE      CODE     ---       #156
      010010B8H   LINE      CODE     ---       #157
      010010B8H   LINE      CODE     ---       #159
      ---         BLOCKEND  ---      ---       LVL=0

      ---         MODULE    ---      ---       15AD
      01001128H   PUBLIC    CODE     ---       get_adc0
      010011F4H   PUBLIC    CODE     ---       adc_init
      00000080H   SFRSYM    DATA     BYTE      P0
      00000090H   SFRSYM    DATA     BYTE      P1
      000000A0H   SFRSYM    DATA     BYTE      P2
      000000B0H   SFRSYM    DATA     BYTE      P3
      000000B0H.4 SFRSYM    DATA     BIT       T0
      000000D0H.6 SFRSYM    DATA     BIT       AC
      000000B0H.5 SFRSYM    DATA     BIT       T1
      000000A8H.7 SFRSYM    DATA     BIT       EA
      000000A8H   SFRSYM    DATA     BYTE      IE
      000000BDH   SFRSYM    DATA     BYTE      ADC_RES
      000000B0H.7 SFRSYM    DATA     BIT       RD
      000000A8H.4 SFRSYM    DATA     BIT       ES
      000000B8H   SFRSYM    DATA     BYTE      IP
      00000098H.0 SFRSYM    DATA     BIT       RI
      000000B0H.2 SFRSYM    DATA     BIT       INT0
      000000D0H.7 SFRSYM    DATA     BIT       CY
      00000098H.1 SFRSYM    DATA     BIT       TI
      000000B0H.3 SFRSYM    DATA     BIT       INT1
      000000B8H.4 SFRSYM    DATA     BIT       PS
      00000081H   SFRSYM    DATA     BYTE      SP
      000000D0H.2 SFRSYM    DATA     BIT       OV
      000000B0H.6 SFRSYM    DATA     BIT       WR
      000000BCH   SFRSYM    DATA     BYTE      ADC_CONTR
      00000099H   SFRSYM    DATA     BYTE      SBUF
      00000087H   SFRSYM    DATA     BYTE      PCON
      00000098H   SFRSYM    DATA     BYTE      SCON
      00000089H   SFRSYM    DATA     BYTE      TMOD
      00000088H   SFRSYM    DATA     BYTE      TCON
      00000088H.1 SFRSYM    DATA     BIT       IE0
      00000088H.3 SFRSYM    DATA     BIT       IE1
      000000F0H   SFRSYM    DATA     BYTE      B
      000000E0H   SFRSYM    DATA     BYTE      ACC
      000000A8H.1 SFRSYM    DATA     BIT       ET0
      000000A8H.3 SFRSYM    DATA     BIT       ET1
      00000088H.5 SFRSYM    DATA     BIT       TF0
      00000088H.7 SFRSYM    DATA     BIT       TF1
LX51 LINKER/LOCATER V4.66.93.0                                                        05/07/2023  14:12:54  PAGE 40


      00000098H.2 SFRSYM    DATA     BIT       RB8
      0000008CH   SFRSYM    DATA     BYTE      TH0
      000000A8H.0 SFRSYM    DATA     BIT       EX0
      00000088H.0 SFRSYM    DATA     BIT       IT0
      0000008DH   SFRSYM    DATA     BYTE      TH1
      00000098H.3 SFRSYM    DATA     BIT       TB8
      000000A8H.2 SFRSYM    DATA     BIT       EX1
      00000088H.2 SFRSYM    DATA     BIT       IT1
      000000D0H.0 SFRSYM    DATA     BIT       P
      00000098H.7 SFRSYM    DATA     BIT       SM0
      0000008AH   SFRSYM    DATA     BYTE      TL0
      00000098H.6 SFRSYM    DATA     BIT       SM1
      0000008BH   SFRSYM    DATA     BYTE      TL1
      00000098H.5 SFRSYM    DATA     BIT       SM2
      000000B8H.1 SFRSYM    DATA     BIT       PT0
      000000B8H.3 SFRSYM    DATA     BIT       PT1
      000000D0H.3 SFRSYM    DATA     BIT       RS0
      00000088H.4 SFRSYM    DATA     BIT       TR0
      000000D0H.4 SFRSYM    DATA     BIT       RS1
      00000088H.6 SFRSYM    DATA     BIT       TR1
      000000B8H.0 SFRSYM    DATA     BIT       PX0
      000000B8H.2 SFRSYM    DATA     BIT       PX1
      0000009DH   SFRSYM    DATA     BYTE      P1ASF
      00000083H   SFRSYM    DATA     BYTE      DPH
      000000BEH   SFRSYM    DATA     BYTE      ADC_RESL
      00000082H   SFRSYM    DATA     BYTE      DPL
      000000BCH   SFRSYM    DATA     BYTE      ADC_CONTR0
      00000097H   SFRSYM    DATA     BYTE      PCON2
      00000098H.4 SFRSYM    DATA     BIT       REN
      000000B0H.0 SFRSYM    DATA     BIT       RXD
      000000B0H.1 SFRSYM    DATA     BIT       TXD
      000000D0H.5 SFRSYM    DATA     BIT       F0
      000000D0H   SFRSYM    DATA     BYTE      PSW

      010011F4H   BLOCK     CODE     ---       LVL=0
      010011F4H   LINE      CODE     ---       #24
      010011F4H   LINE      CODE     ---       #25
      010011F4H   LINE      CODE     ---       #26
      010011F7H   LINE      CODE     ---       #27
      010011FAH   LINE      CODE     ---       #32
      010011FEH   LINE      CODE     ---       #34
      ---         BLOCKEND  ---      ---       LVL=0
      00000006H   SYMBOL    DATA     WORD      i
      00000004H   SYMBOL    DATA     WORD      j

      01001128H   BLOCK     CODE     ---       LVL=0
      01001128H   BLOCK     CODE     NEAR LAB  LVL=1
      00000006H   SYMBOL    DATA     WORD      i
      00000004H   SYMBOL    DATA     WORD      j
      ---         BLOCKEND  ---      ---       LVL=1
      01001128H   LINE      CODE     ---       #60
      01001128H   LINE      CODE     ---       #61
      01001128H   LINE      CODE     ---       #63
      0100112BH   LINE      CODE     ---       #64
      0100112FH   LINE      CODE     ---       #65
      01001132H   LINE      CODE     ---       #66
      0100113AH   LINE      CODE     ---       #67
      0100113CH   LINE      CODE     ---       #68
      0100113EH   LINE      CODE     ---       #69
      01001140H   LINE      CODE     ---       #70
      01001142H   LINE      CODE     ---       #71
      01001145H   LINE      CODE     ---       #72
      01001148H   LINE      CODE     ---       #73
      0100114AH   LINE      CODE     ---       #74
      0100114AH   LINE      CODE     ---       #75
LX51 LINKER/LOCATER V4.66.93.0                                                        05/07/2023  14:12:54  PAGE 41


      ---         BLOCKEND  ---      ---       LVL=0

      ---         MODULE    ---      ---       ?C_STARTUP
      01000000H   PUBLIC    CODE     ---       ?C_STARTUP

      ---         MODULE    ---      ---       ?C?COPY
      0100047BH   PUBLIC    CODE     ---       ?C?COPY

      ---         MODULE    ---      ---       ?C?CLDPTR
      010004A1H   PUBLIC    CODE     ---       ?C?CLDPTR

      ---         MODULE    ---      ---       ?C?CLDOPTR
      010004BAH   PUBLIC    CODE     ---       ?C?CLDOPTR

      ---         MODULE    ---      ---       ?C?IMUL
      010004E7H   PUBLIC    CODE     ---       ?C?IMUL

      ---         MODULE    ---      ---       ?C?UIDIV
      010004F9H   PUBLIC    CODE     ---       ?C?UIDIV

      ---         MODULE    ---      ---       ?C?IILDX
      0100054EH   PUBLIC    CODE     ---       ?C?IILDX

      ---         MODULE    ---      ---       ?C?ILDIX
      01000564H   PUBLIC    CODE     ---       ?C?ILDIX

      ---         MODULE    ---      ---       ?C?ISTPTR
      0100057AH   PUBLIC    CODE     ---       ?C?ISTPTR

      ---         MODULE    ---      ---       PRINTF
      020000C5H   PUBLIC    XDATA    ---       ?_PRINTF517?BYTE
      020000C5H   PUBLIC    XDATA    ---       ?_PRINTF?BYTE
      020000C5H   PUBLIC    XDATA    ---       ?_SPRINTF517?BYTE
      020000C5H   PUBLIC    XDATA    ---       ?_SPRINTF?BYTE
      010000B1H   PUBLIC    CODE     ---       _PRINTF
      010000B1H   PUBLIC    CODE     ---       _PRINTF517
      010000ABH   PUBLIC    CODE     ---       _SPRINTF
      010000ABH   PUBLIC    CODE     ---       _SPRINTF517

      ---         MODULE    ---      ---       STRSTR

      ---         MODULE    ---      ---       STRTOK
      02000097H   PUBLIC    XDATA    ---       ?_STRTOK?BYTE
      0100095DH   PUBLIC    CODE     ---       _STRTOK

      ---         MODULE    ---      ---       ATOI
      01000A41H   PUBLIC    CODE     ---       _ATOI

      ---         MODULE    ---      ---       ?C?MEMSET
      01000599H   PUBLIC    CODE     ---       ?C?MEMSET

      ---         MODULE    ---      ---       ?C_INIT
      01000B63H   PUBLIC    CODE     ---       ?C_START

      ---         MODULE    ---      ---       ?C?CSTPTR
      010005C5H   PUBLIC    CODE     ---       ?C?CSTPTR

      ---         MODULE    ---      ---       ?C?PLDIXDATA
      010005D7H   PUBLIC    CODE     ---       ?C?PLDIXDATA

      ---         MODULE    ---      ---       ?C?PSTXDATA
      010005EEH   PUBLIC    CODE     ---       ?C?PSTXDATA

      ---         MODULE    ---      ---       ?C?CCASE
      010005F7H   PUBLIC    CODE     ---       ?C?CCASE
LX51 LINKER/LOCATER V4.66.93.0                                                        05/07/2023  14:12:54  PAGE 42



      ---         MODULE    ---      ---       PUTCHAR
      01001073H   PUBLIC    CODE     ---       _PUTCHAR

      ---         MODULE    ---      ---       ISDIGIT
      010011D9H   PUBLIC    CODE     ---       _ISDIGIT

      ---         MODULE    ---      ---       ISSPACE
      010011B6H   PUBLIC    CODE     ---       _ISSPACE

      ---         MODULE    ---      ---       STRSPN
      0200009DH   PUBLIC    XDATA    ---       ?_STRSPN?BYTE
      01000CB8H   PUBLIC    CODE     ---       _STRSPN

      ---         MODULE    ---      ---       STRPBRK
      0200009DH   PUBLIC    XDATA    ---       ?_STRPBRK?BYTE
      01000DBFH   PUBLIC    CODE     ---       _STRPBRK

Program Size: data=23.3 xdata=369 const=157 code=4616
LX51 RUN COMPLETE.  0 WARNING(S),  0 ERROR(S)
